./bin/xe232_noadc/app_hid_mouse_demo_xe232_noadc.xe: file format: xcore-xe

Loadable 1 for tile[0] (node "0", tile 0):

Disassembly of section .text (size: 826)

<_start>:
             0x00040000: 00 68:       ldc (ru6)       r0, 0x0
             0x00040002: 40 68:       ldc (ru6)       r1, 0x0
             0x00040004: 80 68:       ldc (ru6)       r2, 0x0
             0x00040006: c0 68:       ldc (ru6)       r3, 0x0
             0x00040008: 00 69:       ldc (ru6)       r4, 0x0
             0x0004000a: 40 69:       ldc (ru6)       r5, 0x0
             0x0004000c: 80 69:       ldc (ru6)       r6, 0x0
             0x0004000e: c0 69:       ldc (ru6)       r7, 0x0
             0x00040010: 00 6a:       ldc (ru6)       r8, 0x0
             0x00040012: 40 6a:       ldc (ru6)       r9, 0x0
             0x00040014: 00 f0 92 d9: ldap (lu10)     r11, 0x192 <.label0>
             0x00040018: fb 37:       set (1r)        cp, r11
             0x0004001a: 00 f0 9b d9: ldap (lu10)     r11, 0x19b <.label1>
             0x0004001e: eb 37:       set (1r)        dp, r11
             0x00040020: cb 6a:       ldc (ru6)       r11, 0xb
             0x00040022: bb ff ec 17: get (l2r)       r10, ps[r11]
             0x00040026: 80 f0 c0 6a: ldc (lru6)      r11, 0x2000
             0x0004002a: be 16:       add (3r)        r11, r11, r10
             0x0004002c: fb 2f:       set (1r)        sp, r11
             0x0004002e: c2 86:       getr (rus)      r0, 0x2
             0x00040030: 00 68:       ldc (ru6)       r0, 0x0
             0x00040032: 47 68:       ldc (ru6)       r1, 0x7
             0x00040034: 80 68:       ldc (ru6)       r2, 0x0
             0x00040036: 00 f0 46 d1: bl (lu10)       0x146 <write_sswitch_reg>
             0x0004003a: 02 f0 40 69: ldc (lru6)      r5, 0x80
             0x0004003e: 02 f0 88 69: ldc (lru6)      r6, 0x88

<disableLinks>:
             0x00040042: 00 68:       ldc (ru6)       r0, 0x0
             0x00040044: d4 90:       add (2rus)      r1, r5, 0x0
             0x00040046: 80 68:       ldc (ru6)       r2, 0x0
             0x00040048: 00 f0 3d d1: bl (lu10)       0x13d <write_sswitch_reg>
             0x0004004c: 15 91:       add (2rus)      r5, r5, 0x1
             0x0004004e: 06 33:       eq (3r)         r0, r5, r6
             0x00040050: 08 7c:       bf (ru6)        r0, -0x8 <disableLinks>
             0x00040052: 00 68:       ldc (ru6)       r0, 0x0
             0x00040054: 45 68:       ldc (ru6)       r1, 0x5
             0x00040056: 00 f2 90 68: ldc (lru6)      r2, 0x8010
             0x0004005a: 00 f0 39 d1: bl (lu10)       0x139 <write_sswitch_reg_no_ack>

<nodeIdLoop>:
             0x0004005e: 00 f2 50 68: ldc (lru6)      r1, 0x8010
             0x00040062: c2 86:       getr (rus)      r0, 0x2
             0x00040064: e0 17:       freer (1r)      res[r0]
             0x00040066: 81 ac:       shr (2rus)      r0, r0, 0x10
             0x00040068: 01 30:       eq (3r)         r0, r0, r1
             0x0004006a: 07 7c:       bf (ru6)        r0, -0x7 <nodeIdLoop>
             0x0004006c: 00 f2 10 68: ldc (lru6)      r0, 0x8010
             0x00040070: 67 68:       ldc (ru6)       r1, 0x27
             0x00040072: 04 f0 80 68: ldc (lru6)      r2, 0x100
             0x00040076: 00 f0 26 d1: bl (lu10)       0x126 <write_sswitch_reg>
             0x0004007a: 00 f2 10 68: ldc (lru6)      r0, 0x8010
             0x0004007e: 02 f0 47 68: ldc (lru6)      r1, 0x87
             0x00040082: 00 f0 80 58: ldw (lru6)      r2, dp[0x0]
             0x00040086: 00 f0 1e d1: bl (lu10)       0x11e <write_sswitch_reg>
             0x0004008a: 00 f2 10 68: ldc (lru6)      r0, 0x8010
             0x0004008e: 64 68:       ldc (ru6)       r1, 0x24
             0x00040090: 04 f0 80 68: ldc (lru6)      r2, 0x100
             0x00040094: 00 f0 17 d1: bl (lu10)       0x117 <write_sswitch_reg>
             0x00040098: 00 f2 10 68: ldc (lru6)      r0, 0x8010
             0x0004009c: 02 f0 44 68: ldc (lru6)      r1, 0x84
             0x000400a0: 00 f0 81 58: ldw (lru6)      r2, dp[0x1]
             0x000400a4: 00 f0 0f d1: bl (lu10)       0x10f <write_sswitch_reg>
             0x000400a8: 00 f2 10 68: ldc (lru6)      r0, 0x8010
             0x000400ac: 66 68:       ldc (ru6)       r1, 0x26
             0x000400ae: 04 f0 80 68: ldc (lru6)      r2, 0x100
             0x000400b2: 00 f0 08 d1: bl (lu10)       0x108 <write_sswitch_reg>
             0x000400b6: 00 f2 10 68: ldc (lru6)      r0, 0x8010
             0x000400ba: 02 f0 46 68: ldc (lru6)      r1, 0x86
             0x000400be: 00 f0 82 58: ldw (lru6)      r2, dp[0x2]
             0x000400c2: 00 f0 00 d1: bl (lu10)       0x100 <write_sswitch_reg>
             0x000400c6: 00 f2 10 68: ldc (lru6)      r0, 0x8010
             0x000400ca: 65 68:       ldc (ru6)       r1, 0x25
             0x000400cc: 04 f0 80 68: ldc (lru6)      r2, 0x100
             0x000400d0: 00 f0 f9 d0: bl (lu10)       0xf9 <write_sswitch_reg>
             0x000400d4: 00 f2 10 68: ldc (lru6)      r0, 0x8010
             0x000400d8: 02 f0 45 68: ldc (lru6)      r1, 0x85
             0x000400dc: 00 f0 83 58: ldw (lru6)      r2, dp[0x3]
             0x000400e0: 00 f0 f1 d0: bl (lu10)       0xf1 <write_sswitch_reg>
             0x000400e4: 00 f2 10 68: ldc (lru6)      r0, 0x8010
             0x000400e8: 68 68:       ldc (ru6)       r1, 0x28
             0x000400ea: 80 68:       ldc (ru6)       r2, 0x0
             0x000400ec: 00 f0 eb d0: bl (lu10)       0xeb <write_sswitch_reg>
             0x000400f0: 00 f2 10 68: ldc (lru6)      r0, 0x8010
             0x000400f4: 02 f0 48 68: ldc (lru6)      r1, 0x88
             0x000400f8: 00 f0 84 58: ldw (lru6)      r2, dp[0x4]
             0x000400fc: 00 f0 e3 d0: bl (lu10)       0xe3 <write_sswitch_reg>

<setDimensionReg>:
             0x00040100: 00 f2 10 68: ldc (lru6)      r0, 0x8010
             0x00040104: 4c 68:       ldc (ru6)       r1, 0xc
             0x00040106: 00 f0 85 58: ldw (lru6)      r2, dp[0x5]
             0x0004010a: 00 f0 dc d0: bl (lu10)       0xdc <write_sswitch_reg>
             0x0004010e: 00 f2 10 68: ldc (lru6)      r0, 0x8010
             0x00040112: 4d 68:       ldc (ru6)       r1, 0xd
             0x00040114: 00 f0 86 58: ldw (lru6)      r2, dp[0x6]
             0x00040118: 00 f0 d5 d0: bl (lu10)       0xd5 <write_sswitch_reg>

<sayHello7>:
             0x0004011c: 00 f2 10 68: ldc (lru6)      r0, 0x8010
             0x00040120: 02 f0 47 68: ldc (lru6)      r1, 0x87
             0x00040124: 00 f0 80 58: ldw (lru6)      r2, dp[0x0]
             0x00040128: dd a6:       mkmsk (rus)     r3, 0x1
             0x0004012a: 58 69:       ldc (ru6)       r5, 0x18
             0x0004012c: 7d 22:       shl (3r)        r3, r3, r5
             0x0004012e: 2b 40:       or (3r)         r2, r2, r3
             0x00040130: 00 f0 c9 d0: bl (lu10)       0xc9 <write_sswitch_reg>
             0x00040134: 5a 69:       ldc (ru6)       r5, 0x1a
             0x00040136: 19 a7:       mkmsk (rus)     r6, 0x1

<waitForHello7>:
             0x00040138: 00 f2 10 68: ldc (lru6)      r0, 0x8010
             0x0004013c: 02 f0 47 68: ldc (lru6)      r1, 0x87
             0x00040140: 81 64:       ldaw (ru6)      r2, sp[0x1]
             0x00040142: 00 f0 a0 d0: bl (lu10)       0xa0 <read_sswitch_reg>
             0x00040146: 01 5c:       ldw (ru6)       r0, sp[0x1]
             0x00040148: 41 2a:       shr (3r)        r0, r0, r5
             0x0004014a: 42 3a:       and (3r)        r0, r0, r6
             0x0004014c: 0b 7c:       bf (ru6)        r0, -0xb <waitForHello7>

<sayHelloAgain7>:
             0x0004014e: 00 f2 10 68: ldc (lru6)      r0, 0x8010
             0x00040152: 02 f0 47 68: ldc (lru6)      r1, 0x87
             0x00040156: 00 f0 80 58: ldw (lru6)      r2, dp[0x0]
             0x0004015a: dd a6:       mkmsk (rus)     r3, 0x1
             0x0004015c: 58 69:       ldc (ru6)       r5, 0x18
             0x0004015e: 7d 22:       shl (3r)        r3, r3, r5
             0x00040160: 2b 40:       or (3r)         r2, r2, r3
             0x00040162: 00 f0 b0 d0: bl (lu10)       0xb0 <write_sswitch_reg>

<sayHello4>:
             0x00040166: 00 f2 10 68: ldc (lru6)      r0, 0x8010
             0x0004016a: 02 f0 44 68: ldc (lru6)      r1, 0x84
             0x0004016e: 00 f0 81 58: ldw (lru6)      r2, dp[0x1]
             0x00040172: dd a6:       mkmsk (rus)     r3, 0x1
             0x00040174: 58 69:       ldc (ru6)       r5, 0x18
             0x00040176: 7d 22:       shl (3r)        r3, r3, r5
             0x00040178: 2b 40:       or (3r)         r2, r2, r3
             0x0004017a: 00 f0 a4 d0: bl (lu10)       0xa4 <write_sswitch_reg>
             0x0004017e: 5a 69:       ldc (ru6)       r5, 0x1a
             0x00040180: 19 a7:       mkmsk (rus)     r6, 0x1

<waitForHello4>:
             0x00040182: 00 f2 10 68: ldc (lru6)      r0, 0x8010
             0x00040186: 02 f0 44 68: ldc (lru6)      r1, 0x84
             0x0004018a: 81 64:       ldaw (ru6)      r2, sp[0x1]
             0x0004018c: 00 f0 7b d0: bl (lu10)       0x7b <read_sswitch_reg>
             0x00040190: 01 5c:       ldw (ru6)       r0, sp[0x1]
             0x00040192: 41 2a:       shr (3r)        r0, r0, r5
             0x00040194: 42 3a:       and (3r)        r0, r0, r6
             0x00040196: 0b 7c:       bf (ru6)        r0, -0xb <waitForHello4>

<sayHelloAgain4>:
             0x00040198: 00 f2 10 68: ldc (lru6)      r0, 0x8010
             0x0004019c: 02 f0 44 68: ldc (lru6)      r1, 0x84
             0x000401a0: 00 f0 81 58: ldw (lru6)      r2, dp[0x1]
             0x000401a4: dd a6:       mkmsk (rus)     r3, 0x1
             0x000401a6: 58 69:       ldc (ru6)       r5, 0x18
             0x000401a8: 7d 22:       shl (3r)        r3, r3, r5
             0x000401aa: 2b 40:       or (3r)         r2, r2, r3
             0x000401ac: 00 f0 8b d0: bl (lu10)       0x8b <write_sswitch_reg>

<sayHello6>:
             0x000401b0: 00 f2 10 68: ldc (lru6)      r0, 0x8010
             0x000401b4: 02 f0 46 68: ldc (lru6)      r1, 0x86
             0x000401b8: 00 f0 82 58: ldw (lru6)      r2, dp[0x2]
             0x000401bc: dd a6:       mkmsk (rus)     r3, 0x1
             0x000401be: 58 69:       ldc (ru6)       r5, 0x18
             0x000401c0: 7d 22:       shl (3r)        r3, r3, r5
             0x000401c2: 2b 40:       or (3r)         r2, r2, r3
             0x000401c4: 00 f0 7f d0: bl (lu10)       0x7f <write_sswitch_reg>
             0x000401c8: 5a 69:       ldc (ru6)       r5, 0x1a
             0x000401ca: 19 a7:       mkmsk (rus)     r6, 0x1

<waitForHello6>:
             0x000401cc: 00 f2 10 68: ldc (lru6)      r0, 0x8010
             0x000401d0: 02 f0 46 68: ldc (lru6)      r1, 0x86
             0x000401d4: 81 64:       ldaw (ru6)      r2, sp[0x1]
             0x000401d6: 00 f0 56 d0: bl (lu10)       0x56 <read_sswitch_reg>
             0x000401da: 01 5c:       ldw (ru6)       r0, sp[0x1]
             0x000401dc: 41 2a:       shr (3r)        r0, r0, r5
             0x000401de: 42 3a:       and (3r)        r0, r0, r6
             0x000401e0: 0b 7c:       bf (ru6)        r0, -0xb <waitForHello6>

<sayHelloAgain6>:
             0x000401e2: 00 f2 10 68: ldc (lru6)      r0, 0x8010
             0x000401e6: 02 f0 46 68: ldc (lru6)      r1, 0x86
             0x000401ea: 00 f0 82 58: ldw (lru6)      r2, dp[0x2]
             0x000401ee: dd a6:       mkmsk (rus)     r3, 0x1
             0x000401f0: 58 69:       ldc (ru6)       r5, 0x18
             0x000401f2: 7d 22:       shl (3r)        r3, r3, r5
             0x000401f4: 2b 40:       or (3r)         r2, r2, r3
             0x000401f6: 00 f0 66 d0: bl (lu10)       0x66 <write_sswitch_reg>

<sayHello5>:
             0x000401fa: 00 f2 10 68: ldc (lru6)      r0, 0x8010
             0x000401fe: 02 f0 45 68: ldc (lru6)      r1, 0x85
             0x00040202: 00 f0 83 58: ldw (lru6)      r2, dp[0x3]
             0x00040206: dd a6:       mkmsk (rus)     r3, 0x1
             0x00040208: 58 69:       ldc (ru6)       r5, 0x18
             0x0004020a: 7d 22:       shl (3r)        r3, r3, r5
             0x0004020c: 2b 40:       or (3r)         r2, r2, r3
             0x0004020e: 00 f0 5a d0: bl (lu10)       0x5a <write_sswitch_reg>
             0x00040212: 5a 69:       ldc (ru6)       r5, 0x1a
             0x00040214: 19 a7:       mkmsk (rus)     r6, 0x1

<waitForHello5>:
             0x00040216: 00 f2 10 68: ldc (lru6)      r0, 0x8010
             0x0004021a: 02 f0 45 68: ldc (lru6)      r1, 0x85
             0x0004021e: 81 64:       ldaw (ru6)      r2, sp[0x1]
             0x00040220: 00 f0 31 d0: bl (lu10)       0x31 <read_sswitch_reg>
             0x00040224: 01 5c:       ldw (ru6)       r0, sp[0x1]
             0x00040226: 41 2a:       shr (3r)        r0, r0, r5
             0x00040228: 42 3a:       and (3r)        r0, r0, r6
             0x0004022a: 0b 7c:       bf (ru6)        r0, -0xb <waitForHello5>

<sayHelloAgain5>:
             0x0004022c: 00 f2 10 68: ldc (lru6)      r0, 0x8010
             0x00040230: 02 f0 45 68: ldc (lru6)      r1, 0x85
             0x00040234: 00 f0 83 58: ldw (lru6)      r2, dp[0x3]
             0x00040238: dd a6:       mkmsk (rus)     r3, 0x1
             0x0004023a: 58 69:       ldc (ru6)       r5, 0x18
             0x0004023c: 7d 22:       shl (3r)        r3, r3, r5
             0x0004023e: 2b 40:       or (3r)         r2, r2, r3
             0x00040240: 00 f0 41 d0: bl (lu10)       0x41 <write_sswitch_reg>

<sayHello8>:
             0x00040244: 00 f2 10 68: ldc (lru6)      r0, 0x8010
             0x00040248: 02 f0 48 68: ldc (lru6)      r1, 0x88
             0x0004024c: 00 f0 84 58: ldw (lru6)      r2, dp[0x4]
             0x00040250: dd a6:       mkmsk (rus)     r3, 0x1
             0x00040252: 58 69:       ldc (ru6)       r5, 0x18
             0x00040254: 7d 22:       shl (3r)        r3, r3, r5
             0x00040256: 2b 40:       or (3r)         r2, r2, r3
             0x00040258: 00 f0 35 d0: bl (lu10)       0x35 <write_sswitch_reg>

<invokeXsscHello8>:
             0x0004025c: 00 f2 14 68: ldc (lru6)      r0, 0x8014
             0x00040260: 02 f0 40 68: ldc (lru6)      r1, 0x80
             0x00040264: 00 f0 87 58: ldw (lru6)      r2, dp[0x7]
             0x00040268: dd a6:       mkmsk (rus)     r3, 0x1
             0x0004026a: 58 69:       ldc (ru6)       r5, 0x18
             0x0004026c: 7d 22:       shl (3r)        r3, r3, r5
             0x0004026e: 2b 40:       or (3r)         r2, r2, r3
             0x00040270: 00 f0 29 d0: bl (lu10)       0x29 <write_sswitch_reg>

<setXsscSysFreq8>:
             0x00040274: 00 f2 14 68: ldc (lru6)      r0, 0x8014
             0x00040278: 01 f0 51 68: ldc (lru6)      r1, 0x51
             0x0004027c: 98 68:       ldc (ru6)       r2, 0x18
             0x0004027e: 00 f0 22 d0: bl (lu10)       0x22 <write_sswitch_reg>
             0x00040282: 00 f0 54 d0: bl (lu10)       0x54 <_done>

<read_sswitch_reg>:
             0x00040286: 0c f3 cc 68: ldc (lru6)      r3, 0xc30c
             0x0004028a: 00 f0 00 73: bu (lu6)        0x0 <read_switch_reg>

<read_switch_reg>:
             0x0004028e: 31 ad:       shr (2rus)      r11, r0, 0x10
             0x00040290: 01 f0 cb 72: bt (lru6)       r11, 0x4b <return_zero>
             0x00040294: 35 ad:       shr (2rus)      r11, r1, 0x10
             0x00040296: 01 f0 c8 72: bt (lru6)       r11, 0x48 <return_zero>
             0x0004029a: 81 a4:       shl (2rus)      r0, r0, 0x10
             0x0004029c: 03 40:       or (3r)         r0, r0, r3
             0x0004029e: 4e 87:       getr (rus)      r11, 0x2
             0x000402a0: 33 17:       setd (r2r)      res[r11], r0
             0x000402a2: 03 f0 c1 68: ldc (lru6)      r3, 0xc1
             0x000402a6: 4f 4f:       outct (2r)      res[r11], r3
             0x000402a8: 0c ae:       shr (2rus)      r0, r11, 0x8
             0x000402aa: 80 a4:       shl (2rus)      r0, r0, 0x8
             0x000402ac: b4 ac:       shr (2rus)      r3, r1, 0x8
             0x000402ae: 03 40:       or (3r)         r0, r0, r3
             0x000402b0: 23 af:       out (r2r)       res[r11], r0
             0x000402b2: 37 0f:       outt (r2r)      res[r11], r1
             0x000402b4: 5d 4f:       outct (rus)     res[r11], 0x1
             0x000402b6: 33 87:       inct (2r)       r0, res[r11]
             0x000402b8: 03 b0:       eq (2rus)       r0, r0, 0x3
             0x000402ba: 02 78:       bf (ru6)        r0, 0x2 <skip_in>
             0x000402bc: 27 b7:       in (2r)         r1, res[r11]
             0x000402be: 18 00:       stw (2rus)      r1, r2[0x0]

<skip_in>:
             0x000402c0: 5d cf:       chkct (rus)     res[r11], 0x1
             0x000402c2: eb 17:       freer (1r)      res[r11]
             0x000402c4: c0 77:       retsp (u6)      0x0

<write_sswitch_reg>:
             0x000402c6: 0c f3 cc 68: ldc (lru6)      r3, 0xc30c
             0x000402ca: c1 6a:       ldc (ru6)       r11, 0x1
             0x000402cc: 00 f0 05 73: bu (lu6)        0x5 <write_switch_reg>

<write_sswitch_reg_no_ack>:
             0x000402d0: 0c f3 cc 68: ldc (lru6)      r3, 0xc30c
             0x000402d4: c0 6a:       ldc (ru6)       r11, 0x0
             0x000402d6: 00 f0 00 73: bu (lu6)        0x0 <write_switch_reg>

<write_switch_reg>:
             0x000402da: 00 55:       stw (ru6)       r4, sp[0x0]
             0x000402dc: c1 ac:       shr (2rus)      r4, r0, 0x10
             0x000402de: 1e 71:       bt (ru6)        r4, 0x1e <write_switch_reg_return_0>
             0x000402e0: c5 ac:       shr (2rus)      r4, r1, 0x10
             0x000402e2: 1c 71:       bt (ru6)        r4, 0x1c <write_switch_reg_return_0>
             0x000402e4: 81 a4:       shl (2rus)      r0, r0, 0x10
             0x000402e6: 03 40:       or (3r)         r0, r0, r3
             0x000402e8: 02 87:       getr (rus)      r4, 0x2
             0x000402ea: 90 17:       setd (r2r)      res[r4], r0
             0x000402ec: 03 f0 c0 68: ldc (lru6)      r3, 0xc0
             0x000402f0: 03 4f:       outct (2r)      res[r4], r3
             0x000402f2: c3 7a:       bf (ru6)        r11, 0x3 <build_return_no_ack>
             0x000402f4: 40 ad:       shr (2rus)      r0, r4, 0x8
             0x000402f6: 80 a4:       shl (2rus)      r0, r0, 0x8
             0x000402f8: 04 73:       bu (u6)         0x4 <write_switch_reg_send>

<build_return_no_ack>:
             0x000402fa: 80 ac:       shr (2rus)      r0, r0, 0x8
             0x000402fc: 3c a7:       mkmsk (rus)     r3, 0x8
             0x000402fe: 03 40:       or (3r)         r0, r0, r3
             0x00040300: 80 a4:       shl (2rus)      r0, r0, 0x8

<write_switch_reg_send>:
             0x00040302: b4 ac:       shr (2rus)      r3, r1, 0x8
             0x00040304: 03 40:       or (3r)         r0, r0, r3
             0x00040306: 80 af:       out (r2r)       res[r4], r0
             0x00040308: 94 0f:       outt (r2r)      res[r4], r1
             0x0004030a: 88 af:       out (r2r)       res[r4], r2
             0x0004030c: 11 4f:       outct (rus)     res[r4], 0x1
             0x0004030e: c9 7a:       bf (ru6)        r11, 0x9 <write_switch_reg_free_and_return_1>
             0x00040310: 90 87:       inct (2r)       r0, res[r4]
             0x00040312: 03 b0:       eq (2rus)       r0, r0, 0x3
             0x00040314: 11 cf:       chkct (rus)     res[r4], 0x1
             0x00040316: e4 17:       freer (1r)      res[r4]
             0x00040318: 00 5d:       ldw (ru6)       r4, sp[0x0]
             0x0004031a: c0 77:       retsp (u6)      0x0

<write_switch_reg_return_0>:
             0x0004031c: 00 68:       ldc (ru6)       r0, 0x0
             0x0004031e: 00 5d:       ldw (ru6)       r4, sp[0x0]
             0x00040320: c0 77:       retsp (u6)      0x0

<write_switch_reg_free_and_return_1>:
             0x00040322: e4 17:       freer (1r)      res[r4]
             0x00040324: 01 68:       ldc (ru6)       r0, 0x1
             0x00040326: 00 5d:       ldw (ru6)       r4, sp[0x0]
             0x00040328: c0 77:       retsp (u6)      0x0

<return_zero>:
             0x0004032a: 00 68:       ldc (ru6)       r0, 0x0
             0x0004032c: c0 77:       retsp (u6)      0x0

<_done>:
             0x0004032e: 07 68:       ldc (ru6)       r0, 0x7
             0x00040330: 00 f0 01 d0: bl (lu10)       0x1 <_DoSyscall>
.label2      0x00040334: 01 77:       bu (u6)         -0x1 <.label2>

<_DoSyscall>:
             0x00040336: d0 a6:       mkmsk (rus)     r0, 0x20
             0x00040338: c0 77:       retsp (u6)      0x0

Loadable 1 for tile[1] (node "0", tile 1):

Disassembly of section .text (size: 64)

<_start>:
             0x00040000: 00 68:       ldc (ru6)       r0, 0x0
             0x00040002: 40 68:       ldc (ru6)       r1, 0x0
             0x00040004: 80 68:       ldc (ru6)       r2, 0x0
             0x00040006: c0 68:       ldc (ru6)       r3, 0x0
             0x00040008: 00 69:       ldc (ru6)       r4, 0x0
             0x0004000a: 40 69:       ldc (ru6)       r5, 0x0
             0x0004000c: 80 69:       ldc (ru6)       r6, 0x0
             0x0004000e: c0 69:       ldc (ru6)       r7, 0x0
             0x00040010: 00 6a:       ldc (ru6)       r8, 0x0
             0x00040012: 40 6a:       ldc (ru6)       r9, 0x0
             0x00040014: 00 f0 14 d8: ldap (lu10)     r11, 0x14 <.label0>
             0x00040018: fb 37:       set (1r)        cp, r11
             0x0004001a: 00 f0 1d d8: ldap (lu10)     r11, 0x1d <.label1>
             0x0004001e: eb 37:       set (1r)        dp, r11
             0x00040020: cb 6a:       ldc (ru6)       r11, 0xb
             0x00040022: bb ff ec 17: get (l2r)       r10, ps[r11]
             0x00040026: 80 f0 c0 6a: ldc (lru6)      r11, 0x2000
             0x0004002a: be 16:       add (3r)        r11, r11, r10
             0x0004002c: fb 2f:       set (1r)        sp, r11
             0x0004002e: c2 86:       getr (rus)      r0, 0x2
             0x00040030: 00 f0 00 d0: bl (lu10)       0x0 <_done>

<_done>:
             0x00040034: 07 68:       ldc (ru6)       r0, 0x7
             0x00040036: 00 f0 01 d0: bl (lu10)       0x1 <_DoSyscall>
.label2      0x0004003a: 01 77:       bu (u6)         -0x1 <.label2>

<_DoSyscall>:
             0x0004003c: d0 a6:       mkmsk (rus)     r0, 0x20
             0x0004003e: c0 77:       retsp (u6)      0x0

Loadable 1 for tile[2] (node "1", tile 0):

Disassembly of section .text (size: 826)

<_start>:
             0x00040000: 00 68:       ldc (ru6)       r0, 0x0
             0x00040002: 40 68:       ldc (ru6)       r1, 0x0
             0x00040004: 80 68:       ldc (ru6)       r2, 0x0
             0x00040006: c0 68:       ldc (ru6)       r3, 0x0
             0x00040008: 00 69:       ldc (ru6)       r4, 0x0
             0x0004000a: 40 69:       ldc (ru6)       r5, 0x0
             0x0004000c: 80 69:       ldc (ru6)       r6, 0x0
             0x0004000e: c0 69:       ldc (ru6)       r7, 0x0
             0x00040010: 00 6a:       ldc (ru6)       r8, 0x0
             0x00040012: 40 6a:       ldc (ru6)       r9, 0x0
             0x00040014: 00 f0 92 d9: ldap (lu10)     r11, 0x192 <.label0>
             0x00040018: fb 37:       set (1r)        cp, r11
             0x0004001a: 00 f0 9b d9: ldap (lu10)     r11, 0x19b <.label1>
             0x0004001e: eb 37:       set (1r)        dp, r11
             0x00040020: cb 6a:       ldc (ru6)       r11, 0xb
             0x00040022: bb ff ec 17: get (l2r)       r10, ps[r11]
             0x00040026: 80 f0 c0 6a: ldc (lru6)      r11, 0x2000
             0x0004002a: be 16:       add (3r)        r11, r11, r10
             0x0004002c: fb 2f:       set (1r)        sp, r11
             0x0004002e: c2 86:       getr (rus)      r0, 0x2
             0x00040030: 00 68:       ldc (ru6)       r0, 0x0
             0x00040032: 47 68:       ldc (ru6)       r1, 0x7
             0x00040034: 80 68:       ldc (ru6)       r2, 0x0
             0x00040036: 00 f0 46 d1: bl (lu10)       0x146 <write_sswitch_reg>
             0x0004003a: 02 f0 40 69: ldc (lru6)      r5, 0x80
             0x0004003e: 02 f0 88 69: ldc (lru6)      r6, 0x88

<disableLinks>:
             0x00040042: 00 68:       ldc (ru6)       r0, 0x0
             0x00040044: d4 90:       add (2rus)      r1, r5, 0x0
             0x00040046: 80 68:       ldc (ru6)       r2, 0x0
             0x00040048: 00 f0 3d d1: bl (lu10)       0x13d <write_sswitch_reg>
             0x0004004c: 15 91:       add (2rus)      r5, r5, 0x1
             0x0004004e: 06 33:       eq (3r)         r0, r5, r6
             0x00040050: 08 7c:       bf (ru6)        r0, -0x8 <disableLinks>
             0x00040052: 00 68:       ldc (ru6)       r0, 0x0
             0x00040054: 45 68:       ldc (ru6)       r1, 0x5
             0x00040056: 00 f2 98 68: ldc (lru6)      r2, 0x8018
             0x0004005a: 00 f0 39 d1: bl (lu10)       0x139 <write_sswitch_reg_no_ack>

<nodeIdLoop>:
             0x0004005e: 00 f2 58 68: ldc (lru6)      r1, 0x8018
             0x00040062: c2 86:       getr (rus)      r0, 0x2
             0x00040064: e0 17:       freer (1r)      res[r0]
             0x00040066: 81 ac:       shr (2rus)      r0, r0, 0x10
             0x00040068: 01 30:       eq (3r)         r0, r0, r1
             0x0004006a: 07 7c:       bf (ru6)        r0, -0x7 <nodeIdLoop>
             0x0004006c: 00 f2 18 68: ldc (lru6)      r0, 0x8018
             0x00040070: 60 68:       ldc (ru6)       r1, 0x20
             0x00040072: 04 f0 80 68: ldc (lru6)      r2, 0x100
             0x00040076: 00 f0 26 d1: bl (lu10)       0x126 <write_sswitch_reg>
             0x0004007a: 00 f2 18 68: ldc (lru6)      r0, 0x8018
             0x0004007e: 02 f0 40 68: ldc (lru6)      r1, 0x80
             0x00040082: 00 f0 80 58: ldw (lru6)      r2, dp[0x0]
             0x00040086: 00 f0 1e d1: bl (lu10)       0x11e <write_sswitch_reg>
             0x0004008a: 00 f2 18 68: ldc (lru6)      r0, 0x8018
             0x0004008e: 63 68:       ldc (ru6)       r1, 0x23
             0x00040090: 04 f0 80 68: ldc (lru6)      r2, 0x100
             0x00040094: 00 f0 17 d1: bl (lu10)       0x117 <write_sswitch_reg>
             0x00040098: 00 f2 18 68: ldc (lru6)      r0, 0x8018
             0x0004009c: 02 f0 43 68: ldc (lru6)      r1, 0x83
             0x000400a0: 00 f0 81 58: ldw (lru6)      r2, dp[0x1]
             0x000400a4: 00 f0 0f d1: bl (lu10)       0x10f <write_sswitch_reg>
             0x000400a8: 00 f2 18 68: ldc (lru6)      r0, 0x8018
             0x000400ac: 61 68:       ldc (ru6)       r1, 0x21
             0x000400ae: 04 f0 80 68: ldc (lru6)      r2, 0x100
             0x000400b2: 00 f0 08 d1: bl (lu10)       0x108 <write_sswitch_reg>
             0x000400b6: 00 f2 18 68: ldc (lru6)      r0, 0x8018
             0x000400ba: 02 f0 41 68: ldc (lru6)      r1, 0x81
             0x000400be: 00 f0 82 58: ldw (lru6)      r2, dp[0x2]
             0x000400c2: 00 f0 00 d1: bl (lu10)       0x100 <write_sswitch_reg>
             0x000400c6: 00 f2 18 68: ldc (lru6)      r0, 0x8018
             0x000400ca: 62 68:       ldc (ru6)       r1, 0x22
             0x000400cc: 04 f0 80 68: ldc (lru6)      r2, 0x100
             0x000400d0: 00 f0 f9 d0: bl (lu10)       0xf9 <write_sswitch_reg>
             0x000400d4: 00 f2 18 68: ldc (lru6)      r0, 0x8018
             0x000400d8: 02 f0 42 68: ldc (lru6)      r1, 0x82
             0x000400dc: 00 f0 83 58: ldw (lru6)      r2, dp[0x3]
             0x000400e0: 00 f0 f1 d0: bl (lu10)       0xf1 <write_sswitch_reg>
             0x000400e4: 00 f2 18 68: ldc (lru6)      r0, 0x8018
             0x000400e8: 68 68:       ldc (ru6)       r1, 0x28
             0x000400ea: 80 68:       ldc (ru6)       r2, 0x0
             0x000400ec: 00 f0 eb d0: bl (lu10)       0xeb <write_sswitch_reg>
             0x000400f0: 00 f2 18 68: ldc (lru6)      r0, 0x8018
             0x000400f4: 02 f0 48 68: ldc (lru6)      r1, 0x88
             0x000400f8: 00 f0 84 58: ldw (lru6)      r2, dp[0x4]
             0x000400fc: 00 f0 e3 d0: bl (lu10)       0xe3 <write_sswitch_reg>

<setDimensionReg>:
             0x00040100: 00 f2 18 68: ldc (lru6)      r0, 0x8018
             0x00040104: 4c 68:       ldc (ru6)       r1, 0xc
             0x00040106: 00 f0 85 58: ldw (lru6)      r2, dp[0x5]
             0x0004010a: 00 f0 dc d0: bl (lu10)       0xdc <write_sswitch_reg>
             0x0004010e: 00 f2 18 68: ldc (lru6)      r0, 0x8018
             0x00040112: 4d 68:       ldc (ru6)       r1, 0xd
             0x00040114: 00 f0 86 58: ldw (lru6)      r2, dp[0x6]
             0x00040118: 00 f0 d5 d0: bl (lu10)       0xd5 <write_sswitch_reg>

<sayHello0>:
             0x0004011c: 00 f2 18 68: ldc (lru6)      r0, 0x8018
             0x00040120: 02 f0 40 68: ldc (lru6)      r1, 0x80
             0x00040124: 00 f0 80 58: ldw (lru6)      r2, dp[0x0]
             0x00040128: dd a6:       mkmsk (rus)     r3, 0x1
             0x0004012a: 58 69:       ldc (ru6)       r5, 0x18
             0x0004012c: 7d 22:       shl (3r)        r3, r3, r5
             0x0004012e: 2b 40:       or (3r)         r2, r2, r3
             0x00040130: 00 f0 c9 d0: bl (lu10)       0xc9 <write_sswitch_reg>
             0x00040134: 5a 69:       ldc (ru6)       r5, 0x1a
             0x00040136: 19 a7:       mkmsk (rus)     r6, 0x1

<waitForHello0>:
             0x00040138: 00 f2 18 68: ldc (lru6)      r0, 0x8018
             0x0004013c: 02 f0 40 68: ldc (lru6)      r1, 0x80
             0x00040140: 81 64:       ldaw (ru6)      r2, sp[0x1]
             0x00040142: 00 f0 a0 d0: bl (lu10)       0xa0 <read_sswitch_reg>
             0x00040146: 01 5c:       ldw (ru6)       r0, sp[0x1]
             0x00040148: 41 2a:       shr (3r)        r0, r0, r5
             0x0004014a: 42 3a:       and (3r)        r0, r0, r6
             0x0004014c: 0b 7c:       bf (ru6)        r0, -0xb <waitForHello0>

<sayHelloAgain0>:
             0x0004014e: 00 f2 18 68: ldc (lru6)      r0, 0x8018
             0x00040152: 02 f0 40 68: ldc (lru6)      r1, 0x80
             0x00040156: 00 f0 80 58: ldw (lru6)      r2, dp[0x0]
             0x0004015a: dd a6:       mkmsk (rus)     r3, 0x1
             0x0004015c: 58 69:       ldc (ru6)       r5, 0x18
             0x0004015e: 7d 22:       shl (3r)        r3, r3, r5
             0x00040160: 2b 40:       or (3r)         r2, r2, r3
             0x00040162: 00 f0 b0 d0: bl (lu10)       0xb0 <write_sswitch_reg>

<sayHello3>:
             0x00040166: 00 f2 18 68: ldc (lru6)      r0, 0x8018
             0x0004016a: 02 f0 43 68: ldc (lru6)      r1, 0x83
             0x0004016e: 00 f0 81 58: ldw (lru6)      r2, dp[0x1]
             0x00040172: dd a6:       mkmsk (rus)     r3, 0x1
             0x00040174: 58 69:       ldc (ru6)       r5, 0x18
             0x00040176: 7d 22:       shl (3r)        r3, r3, r5
             0x00040178: 2b 40:       or (3r)         r2, r2, r3
             0x0004017a: 00 f0 a4 d0: bl (lu10)       0xa4 <write_sswitch_reg>
             0x0004017e: 5a 69:       ldc (ru6)       r5, 0x1a
             0x00040180: 19 a7:       mkmsk (rus)     r6, 0x1

<waitForHello3>:
             0x00040182: 00 f2 18 68: ldc (lru6)      r0, 0x8018
             0x00040186: 02 f0 43 68: ldc (lru6)      r1, 0x83
             0x0004018a: 81 64:       ldaw (ru6)      r2, sp[0x1]
             0x0004018c: 00 f0 7b d0: bl (lu10)       0x7b <read_sswitch_reg>
             0x00040190: 01 5c:       ldw (ru6)       r0, sp[0x1]
             0x00040192: 41 2a:       shr (3r)        r0, r0, r5
             0x00040194: 42 3a:       and (3r)        r0, r0, r6
             0x00040196: 0b 7c:       bf (ru6)        r0, -0xb <waitForHello3>

<sayHelloAgain3>:
             0x00040198: 00 f2 18 68: ldc (lru6)      r0, 0x8018
             0x0004019c: 02 f0 43 68: ldc (lru6)      r1, 0x83
             0x000401a0: 00 f0 81 58: ldw (lru6)      r2, dp[0x1]
             0x000401a4: dd a6:       mkmsk (rus)     r3, 0x1
             0x000401a6: 58 69:       ldc (ru6)       r5, 0x18
             0x000401a8: 7d 22:       shl (3r)        r3, r3, r5
             0x000401aa: 2b 40:       or (3r)         r2, r2, r3
             0x000401ac: 00 f0 8b d0: bl (lu10)       0x8b <write_sswitch_reg>

<sayHello1>:
             0x000401b0: 00 f2 18 68: ldc (lru6)      r0, 0x8018
             0x000401b4: 02 f0 41 68: ldc (lru6)      r1, 0x81
             0x000401b8: 00 f0 82 58: ldw (lru6)      r2, dp[0x2]
             0x000401bc: dd a6:       mkmsk (rus)     r3, 0x1
             0x000401be: 58 69:       ldc (ru6)       r5, 0x18
             0x000401c0: 7d 22:       shl (3r)        r3, r3, r5
             0x000401c2: 2b 40:       or (3r)         r2, r2, r3
             0x000401c4: 00 f0 7f d0: bl (lu10)       0x7f <write_sswitch_reg>
             0x000401c8: 5a 69:       ldc (ru6)       r5, 0x1a
             0x000401ca: 19 a7:       mkmsk (rus)     r6, 0x1

<waitForHello1>:
             0x000401cc: 00 f2 18 68: ldc (lru6)      r0, 0x8018
             0x000401d0: 02 f0 41 68: ldc (lru6)      r1, 0x81
             0x000401d4: 81 64:       ldaw (ru6)      r2, sp[0x1]
             0x000401d6: 00 f0 56 d0: bl (lu10)       0x56 <read_sswitch_reg>
             0x000401da: 01 5c:       ldw (ru6)       r0, sp[0x1]
             0x000401dc: 41 2a:       shr (3r)        r0, r0, r5
             0x000401de: 42 3a:       and (3r)        r0, r0, r6
             0x000401e0: 0b 7c:       bf (ru6)        r0, -0xb <waitForHello1>

<sayHelloAgain1>:
             0x000401e2: 00 f2 18 68: ldc (lru6)      r0, 0x8018
             0x000401e6: 02 f0 41 68: ldc (lru6)      r1, 0x81
             0x000401ea: 00 f0 82 58: ldw (lru6)      r2, dp[0x2]
             0x000401ee: dd a6:       mkmsk (rus)     r3, 0x1
             0x000401f0: 58 69:       ldc (ru6)       r5, 0x18
             0x000401f2: 7d 22:       shl (3r)        r3, r3, r5
             0x000401f4: 2b 40:       or (3r)         r2, r2, r3
             0x000401f6: 00 f0 66 d0: bl (lu10)       0x66 <write_sswitch_reg>

<sayHello2>:
             0x000401fa: 00 f2 18 68: ldc (lru6)      r0, 0x8018
             0x000401fe: 02 f0 42 68: ldc (lru6)      r1, 0x82
             0x00040202: 00 f0 83 58: ldw (lru6)      r2, dp[0x3]
             0x00040206: dd a6:       mkmsk (rus)     r3, 0x1
             0x00040208: 58 69:       ldc (ru6)       r5, 0x18
             0x0004020a: 7d 22:       shl (3r)        r3, r3, r5
             0x0004020c: 2b 40:       or (3r)         r2, r2, r3
             0x0004020e: 00 f0 5a d0: bl (lu10)       0x5a <write_sswitch_reg>
             0x00040212: 5a 69:       ldc (ru6)       r5, 0x1a
             0x00040214: 19 a7:       mkmsk (rus)     r6, 0x1

<waitForHello2>:
             0x00040216: 00 f2 18 68: ldc (lru6)      r0, 0x8018
             0x0004021a: 02 f0 42 68: ldc (lru6)      r1, 0x82
             0x0004021e: 81 64:       ldaw (ru6)      r2, sp[0x1]
             0x00040220: 00 f0 31 d0: bl (lu10)       0x31 <read_sswitch_reg>
             0x00040224: 01 5c:       ldw (ru6)       r0, sp[0x1]
             0x00040226: 41 2a:       shr (3r)        r0, r0, r5
             0x00040228: 42 3a:       and (3r)        r0, r0, r6
             0x0004022a: 0b 7c:       bf (ru6)        r0, -0xb <waitForHello2>

<sayHelloAgain2>:
             0x0004022c: 00 f2 18 68: ldc (lru6)      r0, 0x8018
             0x00040230: 02 f0 42 68: ldc (lru6)      r1, 0x82
             0x00040234: 00 f0 83 58: ldw (lru6)      r2, dp[0x3]
             0x00040238: dd a6:       mkmsk (rus)     r3, 0x1
             0x0004023a: 58 69:       ldc (ru6)       r5, 0x18
             0x0004023c: 7d 22:       shl (3r)        r3, r3, r5
             0x0004023e: 2b 40:       or (3r)         r2, r2, r3
             0x00040240: 00 f0 41 d0: bl (lu10)       0x41 <write_sswitch_reg>

<sayHello8>:
             0x00040244: 00 f2 18 68: ldc (lru6)      r0, 0x8018
             0x00040248: 02 f0 48 68: ldc (lru6)      r1, 0x88
             0x0004024c: 00 f0 84 58: ldw (lru6)      r2, dp[0x4]
             0x00040250: dd a6:       mkmsk (rus)     r3, 0x1
             0x00040252: 58 69:       ldc (ru6)       r5, 0x18
             0x00040254: 7d 22:       shl (3r)        r3, r3, r5
             0x00040256: 2b 40:       or (3r)         r2, r2, r3
             0x00040258: 00 f0 35 d0: bl (lu10)       0x35 <write_sswitch_reg>

<invokeXsscHello8>:
             0x0004025c: 00 f2 1a 68: ldc (lru6)      r0, 0x801a
             0x00040260: 02 f0 40 68: ldc (lru6)      r1, 0x80
             0x00040264: 00 f0 87 58: ldw (lru6)      r2, dp[0x7]
             0x00040268: dd a6:       mkmsk (rus)     r3, 0x1
             0x0004026a: 58 69:       ldc (ru6)       r5, 0x18
             0x0004026c: 7d 22:       shl (3r)        r3, r3, r5
             0x0004026e: 2b 40:       or (3r)         r2, r2, r3
             0x00040270: 00 f0 29 d0: bl (lu10)       0x29 <write_sswitch_reg>

<setXsscSysFreq8>:
             0x00040274: 00 f2 1a 68: ldc (lru6)      r0, 0x801a
             0x00040278: 01 f0 51 68: ldc (lru6)      r1, 0x51
             0x0004027c: 98 68:       ldc (ru6)       r2, 0x18
             0x0004027e: 00 f0 22 d0: bl (lu10)       0x22 <write_sswitch_reg>
             0x00040282: 00 f0 54 d0: bl (lu10)       0x54 <_done>

<read_sswitch_reg>:
             0x00040286: 0c f3 cc 68: ldc (lru6)      r3, 0xc30c
             0x0004028a: 00 f0 00 73: bu (lu6)        0x0 <read_switch_reg>

<read_switch_reg>:
             0x0004028e: 31 ad:       shr (2rus)      r11, r0, 0x10
             0x00040290: 01 f0 cb 72: bt (lru6)       r11, 0x4b <return_zero>
             0x00040294: 35 ad:       shr (2rus)      r11, r1, 0x10
             0x00040296: 01 f0 c8 72: bt (lru6)       r11, 0x48 <return_zero>
             0x0004029a: 81 a4:       shl (2rus)      r0, r0, 0x10
             0x0004029c: 03 40:       or (3r)         r0, r0, r3
             0x0004029e: 4e 87:       getr (rus)      r11, 0x2
             0x000402a0: 33 17:       setd (r2r)      res[r11], r0
             0x000402a2: 03 f0 c1 68: ldc (lru6)      r3, 0xc1
             0x000402a6: 4f 4f:       outct (2r)      res[r11], r3
             0x000402a8: 0c ae:       shr (2rus)      r0, r11, 0x8
             0x000402aa: 80 a4:       shl (2rus)      r0, r0, 0x8
             0x000402ac: b4 ac:       shr (2rus)      r3, r1, 0x8
             0x000402ae: 03 40:       or (3r)         r0, r0, r3
             0x000402b0: 23 af:       out (r2r)       res[r11], r0
             0x000402b2: 37 0f:       outt (r2r)      res[r11], r1
             0x000402b4: 5d 4f:       outct (rus)     res[r11], 0x1
             0x000402b6: 33 87:       inct (2r)       r0, res[r11]
             0x000402b8: 03 b0:       eq (2rus)       r0, r0, 0x3
             0x000402ba: 02 78:       bf (ru6)        r0, 0x2 <skip_in>
             0x000402bc: 27 b7:       in (2r)         r1, res[r11]
             0x000402be: 18 00:       stw (2rus)      r1, r2[0x0]

<skip_in>:
             0x000402c0: 5d cf:       chkct (rus)     res[r11], 0x1
             0x000402c2: eb 17:       freer (1r)      res[r11]
             0x000402c4: c0 77:       retsp (u6)      0x0

<write_sswitch_reg>:
             0x000402c6: 0c f3 cc 68: ldc (lru6)      r3, 0xc30c
             0x000402ca: c1 6a:       ldc (ru6)       r11, 0x1
             0x000402cc: 00 f0 05 73: bu (lu6)        0x5 <write_switch_reg>

<write_sswitch_reg_no_ack>:
             0x000402d0: 0c f3 cc 68: ldc (lru6)      r3, 0xc30c
             0x000402d4: c0 6a:       ldc (ru6)       r11, 0x0
             0x000402d6: 00 f0 00 73: bu (lu6)        0x0 <write_switch_reg>

<write_switch_reg>:
             0x000402da: 00 55:       stw (ru6)       r4, sp[0x0]
             0x000402dc: c1 ac:       shr (2rus)      r4, r0, 0x10
             0x000402de: 1e 71:       bt (ru6)        r4, 0x1e <write_switch_reg_return_0>
             0x000402e0: c5 ac:       shr (2rus)      r4, r1, 0x10
             0x000402e2: 1c 71:       bt (ru6)        r4, 0x1c <write_switch_reg_return_0>
             0x000402e4: 81 a4:       shl (2rus)      r0, r0, 0x10
             0x000402e6: 03 40:       or (3r)         r0, r0, r3
             0x000402e8: 02 87:       getr (rus)      r4, 0x2
             0x000402ea: 90 17:       setd (r2r)      res[r4], r0
             0x000402ec: 03 f0 c0 68: ldc (lru6)      r3, 0xc0
             0x000402f0: 03 4f:       outct (2r)      res[r4], r3
             0x000402f2: c3 7a:       bf (ru6)        r11, 0x3 <build_return_no_ack>
             0x000402f4: 40 ad:       shr (2rus)      r0, r4, 0x8
             0x000402f6: 80 a4:       shl (2rus)      r0, r0, 0x8
             0x000402f8: 04 73:       bu (u6)         0x4 <write_switch_reg_send>

<build_return_no_ack>:
             0x000402fa: 80 ac:       shr (2rus)      r0, r0, 0x8
             0x000402fc: 3c a7:       mkmsk (rus)     r3, 0x8
             0x000402fe: 03 40:       or (3r)         r0, r0, r3
             0x00040300: 80 a4:       shl (2rus)      r0, r0, 0x8

<write_switch_reg_send>:
             0x00040302: b4 ac:       shr (2rus)      r3, r1, 0x8
             0x00040304: 03 40:       or (3r)         r0, r0, r3
             0x00040306: 80 af:       out (r2r)       res[r4], r0
             0x00040308: 94 0f:       outt (r2r)      res[r4], r1
             0x0004030a: 88 af:       out (r2r)       res[r4], r2
             0x0004030c: 11 4f:       outct (rus)     res[r4], 0x1
             0x0004030e: c9 7a:       bf (ru6)        r11, 0x9 <write_switch_reg_free_and_return_1>
             0x00040310: 90 87:       inct (2r)       r0, res[r4]
             0x00040312: 03 b0:       eq (2rus)       r0, r0, 0x3
             0x00040314: 11 cf:       chkct (rus)     res[r4], 0x1
             0x00040316: e4 17:       freer (1r)      res[r4]
             0x00040318: 00 5d:       ldw (ru6)       r4, sp[0x0]
             0x0004031a: c0 77:       retsp (u6)      0x0

<write_switch_reg_return_0>:
             0x0004031c: 00 68:       ldc (ru6)       r0, 0x0
             0x0004031e: 00 5d:       ldw (ru6)       r4, sp[0x0]
             0x00040320: c0 77:       retsp (u6)      0x0

<write_switch_reg_free_and_return_1>:
             0x00040322: e4 17:       freer (1r)      res[r4]
             0x00040324: 01 68:       ldc (ru6)       r0, 0x1
             0x00040326: 00 5d:       ldw (ru6)       r4, sp[0x0]
             0x00040328: c0 77:       retsp (u6)      0x0

<return_zero>:
             0x0004032a: 00 68:       ldc (ru6)       r0, 0x0
             0x0004032c: c0 77:       retsp (u6)      0x0

<_done>:
             0x0004032e: 07 68:       ldc (ru6)       r0, 0x7
             0x00040330: 00 f0 01 d0: bl (lu10)       0x1 <_DoSyscall>
.label2      0x00040334: 01 77:       bu (u6)         -0x1 <.label2>

<_DoSyscall>:
             0x00040336: d0 a6:       mkmsk (rus)     r0, 0x20
             0x00040338: c0 77:       retsp (u6)      0x0

Loadable 1 for tile[3] (node "1", tile 1):

Disassembly of section .text (size: 64)

<_start>:
             0x00040000: 00 68:       ldc (ru6)       r0, 0x0
             0x00040002: 40 68:       ldc (ru6)       r1, 0x0
             0x00040004: 80 68:       ldc (ru6)       r2, 0x0
             0x00040006: c0 68:       ldc (ru6)       r3, 0x0
             0x00040008: 00 69:       ldc (ru6)       r4, 0x0
             0x0004000a: 40 69:       ldc (ru6)       r5, 0x0
             0x0004000c: 80 69:       ldc (ru6)       r6, 0x0
             0x0004000e: c0 69:       ldc (ru6)       r7, 0x0
             0x00040010: 00 6a:       ldc (ru6)       r8, 0x0
             0x00040012: 40 6a:       ldc (ru6)       r9, 0x0
             0x00040014: 00 f0 14 d8: ldap (lu10)     r11, 0x14 <.label0>
             0x00040018: fb 37:       set (1r)        cp, r11
             0x0004001a: 00 f0 1d d8: ldap (lu10)     r11, 0x1d <.label1>
             0x0004001e: eb 37:       set (1r)        dp, r11
             0x00040020: cb 6a:       ldc (ru6)       r11, 0xb
             0x00040022: bb ff ec 17: get (l2r)       r10, ps[r11]
             0x00040026: 80 f0 c0 6a: ldc (lru6)      r11, 0x2000
             0x0004002a: be 16:       add (3r)        r11, r11, r10
             0x0004002c: fb 2f:       set (1r)        sp, r11
             0x0004002e: c2 86:       getr (rus)      r0, 0x2
             0x00040030: 00 f0 00 d0: bl (lu10)       0x0 <_done>

<_done>:
             0x00040034: 07 68:       ldc (ru6)       r0, 0x7
             0x00040036: 00 f0 01 d0: bl (lu10)       0x1 <_DoSyscall>
.label2      0x0004003a: 01 77:       bu (u6)         -0x1 <.label2>

<_DoSyscall>:
             0x0004003c: d0 a6:       mkmsk (rus)     r0, 0x20
             0x0004003e: c0 77:       retsp (u6)      0x0

Loadable 2 for tile[0] (node "0", tile 0):

Disassembly of section .text (size: 10412)

<_start>:
             0x00040000: 00 f0 40 77: entsp (lu6)     0x0
             0x00040004: 4b 68:       ldc (ru6)       r1, 0xb
             0x00040006: d1 fe ec 17: get (l2r)       r0, ps[r1]
             0x0004000a: 04 f0 8b 68: ldc (lru6)      r2, 0x10b
             0x0004000e: c2 fe ec 1f: set (lr2r)      ps[r2], r0
             0x00040012: c3 86:       getr (rus)      r0, 0x3
             0x00040014: 79 d8:       ldap (u10)      r11, 0x79 <_InitChildThread>
             0x00040016: 02 73:       bu (u6)         0x2 <.label0>
.label1      0x00040018: 5d ff ec 07: init (l2r)      t[r1]:pc, r11
.label0      0x0004001c: d4 06:       getst (2r)      r1, res[r0]
             0x0004001e: 44 74:       bt (ru6)        r1, -0x4 <.label1>
             0x00040020: f0 1f:       msync (1r)      res[r0]
             0x00040022: 74 d0:       bl (u10)        0x74 <_SetupThread>
             0x00040024: 00 f0 9a 6f: ldw (lru6)      sp, cp[0x1a]
             0x00040028: f0 17:       mjoin (1r)      res[r0]
             0x0004002a: e0 17:       freer (1r)      res[r0]
             0x0004002c: 05 f0 18 60: ldaw (lru6)     r0, dp[0x158]
             0x00040030: 40 68:       ldc (ru6)       r1, 0x0
             0x00040032: 00 f0 9b 6c: ldw (lru6)      r2, cp[0x1b]
             0x00040036: 02 f0 c1 d0: bl (lu10)       0x8c1 <memset>
             0x0004003a: 00 f0 17 6c: ldw (lru6)      r0, cp[0x17]
             0x0004003e: 40 68:       ldc (ru6)       r1, 0x0
             0x00040040: 00 f0 9c 6c: ldw (lru6)      r2, cp[0x1c]
             0x00040044: 02 f0 ba d0: bl (lu10)       0x8ba <memset>
             0x00040048: 02 f0 bc d0: bl (lu10)       0x8bc <__init_threadlocal_timer>
             0x0004004c: 05 f0 2e d0: bl (lu10)       0x142e <.label2>
             0x00040050: 00 f0 c6 6a: ldc (lru6)      r11, 0x6
             0x00040054: c8 ea:       setc (ru6)      res[r11], 0x8
             0x00040056: cf ea:       setc (ru6)      res[r11], 0xf
             0x00040058: 00 68:       ldc (ru6)       r0, 0x0
             0x0004005a: 01 54:       stw (ru6)       r0, sp[0x1]
             0x0004005c: 00 f0 40 68: ldc (lru6)      r1, 0x0
             0x00040060: 48 78:       bf (ru6)        r1, 0x8 <.label3>
             0x00040062: 01 64:       ldaw (ru6)      r0, sp[0x1]
             0x00040064: 02 f0 84 d0: bl (lu10)       0x884 <_get_cmdline>
             0x00040068: b0 f8 ec 97: ashr (l2rus)    r11, r0, 0x20
             0x0004006c: c2 7a:       bf (ru6)        r11, 0x2 <.label3>
             0x0004006e: 01 90:       add (2rus)      r0, r0, 0x1
             0x00040070: f0 4f:       ecallt (1r)     r0
.label3      0x00040072: 41 64:       ldaw (ru6)      r1, sp[0x1]
             0x00040074: 02 f0 35 d0: bl (lu10)       0x835 <main>
             0x00040078: 02 70:       bt (ru6)        r0, 0x2 <.label4>
             0x0004007a: 02 f0 81 d0: bl (lu10)       0x881 <__libc_done>
.label4      0x0004007e: 02 f0 8b d0: bl (lu10)       0x88b <_exit_unlocked>
             0x00040082: ff 17:       nop (0r)        
             0x00040084: ff 17:       nop (0r)        
             0x00040086: ff 17:       nop (0r)        
             0x00040088: ff 17:       nop (0r)        
             0x0004008a: ff 17:       nop (0r)        
             0x0004008c: ff 17:       nop (0r)        
             0x0004008e: ff 17:       nop (0r)        
             0x00040090: ff 17:       nop (0r)        
             0x00040092: ff 17:       nop (0r)        
             0x00040094: ff 17:       nop (0r)        
             0x00040096: ff 17:       nop (0r)        
             0x00040098: ff 17:       nop (0r)        
             0x0004009a: ff 17:       nop (0r)        
             0x0004009c: ff 17:       nop (0r)        
             0x0004009e: ff 17:       nop (0r)        
             0x000400a0: ff 17:       nop (0r)        
             0x000400a2: ff 17:       nop (0r)        
             0x000400a4: ff 17:       nop (0r)        
             0x000400a6: ff 17:       nop (0r)        
             0x000400a8: ff 17:       nop (0r)        
             0x000400aa: ff 17:       nop (0r)        
             0x000400ac: ff 17:       nop (0r)        
             0x000400ae: ff 17:       nop (0r)        
             0x000400b0: ff 17:       nop (0r)        
             0x000400b2: ff 17:       nop (0r)        
             0x000400b4: ff 17:       nop (0r)        
             0x000400b6: ff 17:       nop (0r)        
             0x000400b8: ff 17:       nop (0r)        
             0x000400ba: ff 17:       nop (0r)        
             0x000400bc: ff 17:       nop (0r)        
             0x000400be: ff 17:       nop (0r)        
             0x000400c0: ff 17:       nop (0r)        
             0x000400c2: ff 17:       nop (0r)        
             0x000400c4: ff 17:       nop (0r)        
             0x000400c6: ff 17:       nop (0r)        
             0x000400c8: ff 17:       nop (0r)        
             0x000400ca: ff 17:       nop (0r)        
             0x000400cc: ff 17:       nop (0r)        
             0x000400ce: ff 17:       nop (0r)        
             0x000400d0: ff 17:       nop (0r)        
             0x000400d2: ff 17:       nop (0r)        
             0x000400d4: ff 17:       nop (0r)        
             0x000400d6: ff 17:       nop (0r)        
             0x000400d8: ff 17:       nop (0r)        
             0x000400da: ff 17:       nop (0r)        
             0x000400dc: ff 17:       nop (0r)        
             0x000400de: ff 17:       nop (0r)        
             0x000400e0: ff 17:       nop (0r)        
             0x000400e2: ff 17:       nop (0r)        
             0x000400e4: ff 17:       nop (0r)        
             0x000400e6: ff 17:       nop (0r)        
             0x000400e8: ff 17:       nop (0r)        
             0x000400ea: ff 17:       nop (0r)        
             0x000400ec: ff 17:       nop (0r)        
             0x000400ee: ff 17:       nop (0r)        
             0x000400f0: ff 17:       nop (0r)        
             0x000400f2: ff 17:       nop (0r)        
             0x000400f4: ff 17:       nop (0r)        
             0x000400f6: ff 17:       nop (0r)        
             0x000400f8: ff 17:       nop (0r)        
             0x000400fa: ff 17:       nop (0r)        
             0x000400fc: ff 17:       nop (0r)        
             0x000400fe: ff 17:       nop (0r)        

<_TrapHandler>:
             0x00040100: 00 f0 40 77: entsp (lu6)     0x0
             0x00040104: 02 f0 56 d0: bl (lu10)       0x856 <_DoException>

<_InitChildThread>:
             0x00040108: 01 d0:       bl (u10)        0x1 <_SetupThread>
             0x0004010a: ee 07:       ssync (0r)      

<_SetupThread>:
             0x0004010c: 07 dc:       ldap (u10)      r11, -0x7 <_TrapHandler>
             0x0004010e: ff 07:       set (0r)        kep, r11
             0x00040110: 05 f0 04 d8: ldap (lu10)     r11, 0x1404 <.label5>
             0x00040114: fb 37:       set (1r)        cp, r11
             0x00040116: 00 f0 56 6f: ldw (lru6)      dp, cp[0x16]
             0x0004011a: c0 6a:       ldc (ru6)       r11, 0x0
             0x0004011c: fb 2f:       set (1r)        sp, r11
             0x0004011e: c0 77:       retsp (u6)      0x0

<__register_frame_info_bases>:
             0x00040120: c0 77:       retsp (u6)      0x0
             0x00040122: 00 00:       stw (2rus)      r0, r0[0x0]

<Endpoint0>:
             0x00040124: 01 f0 9a 7f: dualentsp (lu6) 0x5a
             0x00040128: 01 f0 12 55: stw (lru6)      r4, sp[0x52]
             0x0004012c: 01 f0 53 55: stw (lru6)      r5, sp[0x53]
             0x00040130: 01 f0 94 55: stw (lru6)      r6, sp[0x54]
             0x00040134: 01 f0 d5 55: stw (lru6)      r7, sp[0x55]
             0x00040138: 01 f0 16 56: stw (lru6)      r8, sp[0x56]
             0x0004013c: 01 f0 57 56: stw (lru6)      r9, sp[0x57]
             0x00040140: 01 f0 98 56: stw (lru6)      r10, sp[0x58]
             0x00040144: 68 90:       add (2rus)      r6, r2, 0x0
             0x00040146: 40 90:       add (2rus)      r4, r0, 0x0
             0x00040148: 04 90:       add (2rus)      r0, r1, 0x0
             0x0004014a: ff 17:       nop (0r)        
             0x0004014c: 00 f0 66 d3: bl (lu10)       0x366 <XUD_InitEp>
             0x00040150: 50 90:       add (2rus)      r5, r0, 0x0
             0x00040152: c8 90:       add (2rus)      r0, r6, 0x0
             0x00040154: 00 f0 64 d3: bl (lu10)       0x364 <XUD_InitEp>
             0x00040158: 70 90:       add (2rus)      r7, r0, 0x0
             0x0004015a: ff 17:       nop (0r)        
             0x0004015c: 8f 65:       ldaw (ru6)      r6, sp[0xf]
             0x0004015e: ce 55:       stw (ru6)       r7, sp[0xe]
             0x00040160: 02 68:       ldc (ru6)       r0, 0x2
             0x00040162: ff 17:       nop (0r)        
             0x00040164: c8 40:       or (3r)         r0, r6, r0
             0x00040166: ff 17:       nop (0r)        
             0x00040168: 00 6a:       ldc (ru6)       r8, 0x0
             0x0004016a: 0d 54:       stw (ru6)       r0, sp[0xd]
             0x0004016c: d1 a6:       mkmsk (rus)     r0, 0x1
             0x0004016e: ff 17:       nop (0r)        
             0x00040170: c8 40:       or (3r)         r0, r6, r0
             0x00040172: ff 17:       nop (0r)        
             0x00040174: ff 17:       nop (0r)        
             0x00040176: 0c 54:       stw (ru6)       r0, sp[0xc]
             0x00040178: 05 f0 18 60: ldaw (lru6)     r0, dp[0x158]
             0x0004017c: 54 a7:       mkmsk (rus)     r9, 0x20
             0x0004017e: 0b 54:       stw (ru6)       r0, sp[0xb]
             0x00040180: 00 f0 03 73: bu (lu6)        0x3 <.label6>
.label14     0x00040184: c4 90:       add (2rus)      r0, r5, 0x0
             0x00040186: 4e 64:       ldaw (ru6)      r1, sp[0xe]
             0x00040188: 00 f0 3f d3: bl (lu10)       0x33f <XUD_ResetEndpoint>
             0x0004018c: a0 90:       add (2rus)      r10, r0, 0x0
             0x0004018e: ce 5d:       ldw (ru6)       r7, sp[0xe]
.label6      0x00040190: c4 90:       add (2rus)      r0, r5, 0x0
             0x00040192: dc 90:       add (2rus)      r1, r7, 0x0
             0x00040194: e8 90:       add (2rus)      r2, r6, 0x0
             0x00040196: ff 17:       nop (0r)        
             0x00040198: 00 f0 b7 d2: bl (lu10)       0x2b7 <USB_GetSetupPacket>
             0x0004019c: 01 f0 01 70: bt (lru6)       r0, 0x41 <.label7>
             0x000401a0: ff 17:       nop (0r)        
             0x000401a2: 0d 5c:       ldw (ru6)       r0, sp[0xd]
             0x000401a4: ff 17:       nop (0r)        
             0x000401a6: 80 8c:       ld8u (3r)       r0, r0[r8]
             0x000401a8: 43 a2:       shl (2rus)      r0, r0, 0x7
             0x000401aa: 4c 5c:       ldw (ru6)       r1, sp[0xc]
             0x000401ac: ff 17:       nop (0r)        
             0x000401ae: 94 8c:       ld8u (3r)       r1, r1[r8]
             0x000401b0: 55 a2:       shl (2rus)      r1, r1, 0x5
             0x000401b2: ff 17:       nop (0r)        
             0x000401b4: 14 40:       or (3r)         r1, r1, r0
             0x000401b6: 8f 5c:       ldw (ru6)       r2, sp[0xf]
             0x000401b8: 8a ac:       shr (2rus)      r0, r2, 0x18
             0x000401ba: 38 47:       zext (rus)      r2, 0x8
             0x000401bc: 16 40:       or (3r)         r1, r1, r2
             0x000401be: a1 68:       ldc (ru6)       r2, 0x21
             0x000401c0: 26 30:       eq (3r)         r2, r1, r2
             0x000401c2: ff 17:       nop (0r)        
             0x000401c4: 00 f0 9b 70: bt (lru6)       r2, 0x1b <.label8>
             0x000401c8: 02 f0 81 68: ldc (lru6)      r2, 0x81
             0x000401cc: 26 30:       eq (3r)         r2, r1, r2
             0x000401ce: ff 17:       nop (0r)        
             0x000401d0: 00 f0 95 78: bf (lru6)       r2, 0x15 <.label9>
             0x000401d4: 1a 93:       add (2rus)      r1, r6, 0x6
             0x000401d6: ff 17:       nop (0r)        
             0x000401d8: 42 b2:       eq (2rus)       r0, r0, 0x6
             0x000401da: 94 84:       ld16s (3r)      r1, r1[r8]
             0x000401dc: 00 f0 33 78: bf (lru6)       r0, 0x33 <.label10>
             0x000401e0: 35 47:       zext (rus)      r1, 0x10
             0x000401e2: ff 17:       nop (0r)        
             0x000401e4: 00 f0 71 70: bt (lru6)       r1, 0x31 <.label10>
             0x000401e8: 10 64:       ldaw (ru6)      r0, sp[0x10]
             0x000401ea: ff 17:       nop (0r)        
             0x000401ec: ff 17:       nop (0r)        
             0x000401ee: 80 84:       ld16s (3r)      r0, r0[r8]
             0x000401f0: fc f3 40 68: ldc (lru6)      r1, 0xff00
             0x000401f4: 01 38:       and (3r)        r0, r0, r1
             0x000401f6: ff 17:       nop (0r)        
             0x000401f8: 88 f0 40 68: ldc (lru6)      r1, 0x2200
             0x000401fc: 11 30:       eq (3r)         r1, r0, r1
             0x000401fe: ff 17:       nop (0r)        
             0x00040200: 00 f0 5d 78: bf (lru6)       r1, 0x1d <.label11>
             0x00040204: 11 64:       ldaw (ru6)      r0, sp[0x11]
             0x00040206: ff 17:       nop (0r)        
             0x00040208: ff 17:       nop (0r)        
             0x0004020a: 80 84:       ld16s (3r)      r0, r0[r8]
             0x0004020c: 31 47:       zext (rus)      r0, 0x10
             0x0004020e: ff 17:       nop (0r)        
             0x00040210: ff 17:       nop (0r)        
             0x00040212: 01 54:       stw (ru6)       r0, sp[0x1]
             0x00040214: 01 f0 c8 68: ldc (lru6)      r3, 0x48
             0x00040218: c4 90:       add (2rus)      r0, r5, 0x0
             0x0004021a: c2 54:       stw (ru6)       r3, sp[0x2]
             0x0004021c: dc 90:       add (2rus)      r1, r7, 0x0
             0x0004021e: ff 17:       nop (0r)        
             0x00040220: 04 f0 a8 60: ldaw (lru6)     r2, dp[0x128]
             0x00040224: 00 f0 1e 73: bu (lu6)        0x1e <.label12>
.label9      0x00040228: 02 f0 a1 68: ldc (lru6)      r2, 0xa1
             0x0004022c: 16 30:       eq (3r)         r1, r1, r2
             0x0004022e: ff 17:       nop (0r)        
             0x00040230: 00 f0 5e 78: bf (lru6)       r1, 0x1e <.label10>
.label8      0x00040234: 1a 93:       add (2rus)      r1, r6, 0x6
             0x00040236: ff 17:       nop (0r)        
             0x00040238: ff 17:       nop (0r)        
             0x0004023a: 94 84:       ld16s (3r)      r1, r1[r8]
             0x0004023c: 35 47:       zext (rus)      r1, 0x10
             0x0004023e: ff 17:       nop (0r)        
             0x00040240: 00 f0 5a 70: bt (lru6)       r1, 0x1a <.label10>
             0x00040244: 11 b0:       eq (2rus)       r1, r0, 0x1
             0x00040246: d1 a6:       mkmsk (rus)     r0, 0x1
             0x00040248: 00 f0 56 78: bf (lru6)       r1, 0x16 <.label7>
             0x0004024c: 11 64:       ldaw (ru6)      r0, sp[0x11]
             0x0004024e: ff 17:       nop (0r)        
             0x00040250: ff 17:       nop (0r)        
             0x00040252: 80 84:       ld16s (3r)      r0, r0[r8]
             0x00040254: ff 17:       nop (0r)        
             0x00040256: 4b 5c:       ldw (ru6)       r1, sp[0xb]
             0x00040258: ff 17:       nop (0r)        
             0x0004025a: 14 08:       ldw (2rus)      r1, r1[0x0]
             0x0004025c: 31 47:       zext (rus)      r0, 0x10
             0x0004025e: 52 54:       stw (ru6)       r1, sp[0x12]
             0x00040260: ff 17:       nop (0r)        
             0x00040262: 01 54:       stw (ru6)       r0, sp[0x1]
             0x00040264: 04 f0 00 68: ldc (lru6)      r0, 0x100
             0x00040268: c4 90:       add (2rus)      r0, r5, 0x0
             0x0004026a: 02 54:       stw (ru6)       r0, sp[0x2]
             0x0004026c: dc 90:       add (2rus)      r1, r7, 0x0
             0x0004026e: 92 64:       ldaw (ru6)      r2, sp[0x12]
             0x00040270: c4 68:       ldc (ru6)       r3, 0x4
             0x00040272: ff 17:       nop (0r)        
             0x00040274: 00 f0 0a 73: bu (lu6)        0xa <.label12>
.label11     0x00040278: 84 f0 40 68: ldc (lru6)      r1, 0x2100
             0x0004027c: 01 30:       eq (3r)         r0, r0, r1
             0x0004027e: ff 17:       nop (0r)        
             0x00040280: 00 f0 0a 78: bf (lru6)       r0, 0xa <.label10>
             0x00040284: 11 64:       ldaw (ru6)      r0, sp[0x11]
             0x00040286: ff 17:       nop (0r)        
             0x00040288: ff 17:       nop (0r)        
             0x0004028a: 80 84:       ld16s (3r)      r0, r0[r8]
             0x0004028c: 31 47:       zext (rus)      r0, 0x10
             0x0004028e: ff 17:       nop (0r)        
             0x00040290: c9 68:       ldc (ru6)       r3, 0x9
             0x00040292: 01 54:       stw (ru6)       r0, sp[0x1]
             0x00040294: c4 90:       add (2rus)      r0, r5, 0x0
             0x00040296: c2 54:       stw (ru6)       r3, sp[0x2]
             0x00040298: dc 90:       add (2rus)      r1, r7, 0x0
             0x0004029a: ff 17:       nop (0r)        
             0x0004029c: 04 f0 a1 60: ldaw (lru6)     r2, dp[0x121]
.label12     0x000402a0: 00 f0 d1 d2: bl (lu10)       0x2d1 <XUD_DoGetRequest>
.label7      0x000402a4: 11 b0:       eq (2rus)       r1, r0, 0x1
             0x000402a6: ff 17:       nop (0r)        
             0x000402a8: 00 f0 4b 78: bf (lru6)       r1, 0xb <.label13>
.label10     0x000402ac: 04 68:       ldc (ru6)       r0, 0x4
             0x000402ae: 62 68:       ldc (ru6)       r1, 0x22
             0x000402b0: 13 f8 ec f7: std (l2rus)     r0, r1, sp[0x3]
             0x000402b4: 12 68:       ldc (ru6)       r0, 0x12
             0x000402b6: ff 17:       nop (0r)        
             0x000402b8: a2 f8 ec f7: std (l2rus)     r0, r10, sp[0x2]
             0x000402bc: 04 f0 24 60: ldaw (lru6)     r0, dp[0x124]
             0x000402c0: c9 f8 ec f7: std (l2rus)     r6, r0, sp[0x1]
             0x000402c4: 04 f0 18 60: ldaw (lru6)     r0, dp[0x118]
             0x000402c8: c0 90:       add (2rus)      r0, r4, 0x0
             0x000402ca: 01 54:       stw (ru6)       r0, sp[0x1]
             0x000402cc: d4 90:       add (2rus)      r1, r5, 0x0
             0x000402ce: ec 90:       add (2rus)      r2, r7, 0x0
             0x000402d0: 04 f0 d3 60: ldaw (lru6)     r3, dp[0x113]
             0x000402d4: 00 f0 92 d0: bl (lu10)       0x92 <_SUSB_StandardRequests_0>
.label13     0x000402d8: 81 34:       eq (3r)         r0, r0, r9
             0x000402da: ff 17:       nop (0r)        
             0x000402dc: 01 f0 14 7c: bf (lru6)       r0, -0x54 <.label6>
             0x000402e0: 01 f0 18 77: bu (lu6)        -0x58 <.label14>

<_Shid_mouse_0>:
             0x000402e4: ff 17:       nop (0r)        
             0x000402e6: 8a 7f:       dualentsp (u6)  0xa
             0x000402e8: 05 f9 ec f7: std (l2rus)     r5, r4, sp[0x1]
             0x000402ec: 2e f9 ec f7: std (l2rus)     r7, r6, sp[0x2]
             0x000402f0: 07 fa ec f7: std (l2rus)     r9, r8, sp[0x3]
             0x000402f4: ff 17:       nop (0r)        
             0x000402f6: 88 56:       stw (ru6)       r10, sp[0x8]
             0x000402f8: 00 f0 fb d2: bl (lu10)       0x2fb <XUD_InitEp>
             0x000402fc: 00 6a:       ldc (ru6)       r8, 0x0
             0x000402fe: 01 54:       stw (ru6)       r0, sp[0x1]
             0x00040300: 55 a7:       mkmsk (rus)     r9, 0x1
             0x00040302: ff 17:       nop (0r)        
             0x00040304: 05 f0 58 61: ldaw (lru6)     r5, dp[0x158]
             0x00040308: 02 69:       ldc (ru6)       r4, 0x2
             0x0004030a: 84 69:       ldc (ru6)       r6, 0x4
             0x0004030c: 20 92:       add (2rus)      r10, r8, 0x0
             0x0004030e: f0 91:       add (2rus)      r7, r8, 0x0
             0x00040310: 00 f0 03 73: bu (lu6)        0x3 <.label15>
.label16     0x00040314: d4 90:       add (2rus)      r1, r5, 0x0
             0x00040316: 01 5c:       ldw (ru6)       r0, sp[0x1]
             0x00040318: e8 90:       add (2rus)      r2, r6, 0x0
             0x0004031a: f8 90:       add (2rus)      r3, r6, 0x0
             0x0004031c: 00 f0 7f d2: bl (lu10)       0x27f <XUD_SetBuffer>
.label15     0x00040320: c5 fd ec 8f: st8 (l3r)       r8, r5[r9]
             0x00040324: 84 fb ec 8f: st8 (l3r)       r8, r5[r4]
             0x00040328: 3d 91:       add (2rus)      r7, r7, 0x1
             0x0004032a: ff 17:       nop (0r)        
             0x0004032c: 07 f0 34 68: ldc (lru6)      r0, 0x1f4
             0x00040330: cc c0:       lss (3r)        r0, r7, r0
             0x00040332: ff 17:       nop (0r)        
             0x00040334: 00 f0 09 74: bt (lru6)       r0, -0x9 <.label16>
             0x00040338: d2 a6:       mkmsk (rus)     r0, 0x2
             0x0004033a: ff 17:       nop (0r)        
             0x0004033c: 82 cc:       lsu (3r)        r0, r0, r10
             0x0004033e: f0 91:       add (2rus)      r7, r8, 0x0
             0x00040340: 00 f0 0c 74: bt (lru6)       r0, -0xc <.label16>
             0x00040344: ff 17:       nop (0r)        
             0x00040346: ea 2f:       bru (1r)        r10
             0x00040348: 00 f0 03 73: bu (lu6)        0x3 <.label17>
             0x0004034c: 00 f0 07 73: bu (lu6)        0x7 <.label18>
             0x00040350: 00 f0 0b 73: bu (lu6)        0xb <.label19>
             0x00040354: 00 f0 0f 73: bu (lu6)        0xf <.label20>
.label17     0x00040358: 28 68:       ldc (ru6)       r0, 0x28
             0x0004035a: ff 17:       nop (0r)        
             0x0004035c: 45 fd ec 8f: st8 (l3r)       r0, r5[r9]
             0x00040360: 84 fb ec 8f: st8 (l3r)       r8, r5[r4]
             0x00040364: 24 92:       add (2rus)      r10, r9, 0x0
             0x00040366: ff 17:       nop (0r)        
             0x00040368: 00 f0 0e 73: bu (lu6)        0xe <.label21>
.label18     0x0004036c: c5 fd ec 8f: st8 (l3r)       r8, r5[r9]
             0x00040370: 28 68:       ldc (ru6)       r0, 0x28
             0x00040372: ff 17:       nop (0r)        
             0x00040374: 04 fb ec 8f: st8 (l3r)       r0, r5[r4]
             0x00040378: 60 91:       add (2rus)      r10, r4, 0x0
             0x0004037a: ff 17:       nop (0r)        
             0x0004037c: 00 f0 09 73: bu (lu6)        0x9 <.label21>
.label19     0x00040380: 03 f0 18 68: ldc (lru6)      r0, 0xd8
             0x00040384: 45 fd ec 8f: st8 (l3r)       r0, r5[r9]
             0x00040388: 84 fb ec 8f: st8 (l3r)       r8, r5[r4]
             0x0004038c: 5a a7:       mkmsk (rus)     r10, 0x2
             0x0004038e: ff 17:       nop (0r)        
             0x00040390: 00 f0 04 73: bu (lu6)        0x4 <.label21>
.label20     0x00040394: c5 fd ec 8f: st8 (l3r)       r8, r5[r9]
             0x00040398: 03 f0 18 68: ldc (lru6)      r0, 0xd8
             0x0004039c: 04 fb ec 8f: st8 (l3r)       r0, r5[r4]
             0x000403a0: 20 92:       add (2rus)      r10, r8, 0x0
             0x000403a2: ff 17:       nop (0r)        
.label21     0x000403a4: f0 91:       add (2rus)      r7, r8, 0x0
             0x000403a6: ff 17:       nop (0r)        
             0x000403a8: 00 f0 26 77: bu (lu6)        -0x26 <.label16>

<__main__main_tile_0>:
             0x000403ac: ff 17:       nop (0r)        
             0x000403ae: 8a 7f:       dualentsp (u6)  0xa
             0x000403b0: c2 86:       getr (rus)      r0, 0x2
             0x000403b2: 08 55:       stw (ru6)       r4, sp[0x8]
             0x000403b4: c6 86:       getr (rus)      r1, 0x2
             0x000403b6: ff 17:       nop (0r)        
             0x000403b8: d4 16:       setd (r2r)      res[r0], r1
             0x000403ba: ff 17:       nop (0r)        
             0x000403bc: d1 16:       setd (r2r)      res[r1], r0
             0x000403be: ff 17:       nop (0r)        
             0x000403c0: ca 86:       getr (rus)      r2, 0x2
             0x000403c2: ff 17:       nop (0r)        
             0x000403c4: ce 86:       getr (rus)      r3, 0x2
             0x000403c6: ff 17:       nop (0r)        
             0x000403c8: de 16:       setd (r2r)      res[r2], r3
             0x000403ca: ff 17:       nop (0r)        
             0x000403cc: db 16:       setd (r2r)      res[r3], r2
             0x000403ce: ff 17:       nop (0r)        
             0x000403d0: 4e 87:       getr (rus)      r11, 0x2
             0x000403d2: ff 17:       nop (0r)        
             0x000403d4: 02 87:       getr (rus)      r4, 0x2
             0x000403d6: ff 17:       nop (0r)        
             0x000403d8: 73 17:       setd (r2r)      res[r11], r4
             0x000403da: ff 17:       nop (0r)        
             0x000403dc: fc 16:       setd (r2r)      res[r4], r11
             0x000403de: 06 54:       stw (ru6)       r0, sp[0x6]
             0x000403e0: ff 17:       nop (0r)        
             0x000403e2: 47 54:       stw (ru6)       r1, sp[0x7]
             0x000403e4: ff 17:       nop (0r)        
             0x000403e6: 82 54:       stw (ru6)       r2, sp[0x2]
             0x000403e8: ff 17:       nop (0r)        
             0x000403ea: c4 54:       stw (ru6)       r3, sp[0x4]
             0x000403ec: ff 17:       nop (0r)        
             0x000403ee: c3 56:       stw (ru6)       r11, sp[0x3]
             0x000403f0: ff 17:       nop (0r)        
             0x000403f2: 05 55:       stw (ru6)       r4, sp[0x5]
             0x000403f4: 04 f0 7b 60: ldaw (lru6)     r1, dp[0x13b]
             0x000403f8: 02 64:       ldaw (ru6)      r0, sp[0x2]
             0x000403fa: ff 17:       nop (0r)        
             0x000403fc: 01 f0 bb d1: bl (lu10)       0x5bb <__start_other_cores>

<__main__main_tile_0_task_XUD_Manager_0>:
             0x00040400: ff 17:       nop (0r)        
             0x00040402: 90 7f:       dualentsp (u6)  0x10
             0x00040404: 47 fb ec f7: std (l2rus)     r5, r4, sp[0x7]
             0x00040408: 30 90:       add (2rus)      r3, r0, 0x0
             0x0004040a: ff 17:       nop (0r)        
             0x0004040c: 04 f0 3a 58: ldw (lru6)      r0, dp[0x13a]
             0x00040410: 5c fa ec 9f: ldaw (l2rus)    r1, r3[0x4]
             0x00040414: c2 6a:       ldc (ru6)       r11, 0x2
             0x00040416: d9 a6:       mkmsk (rus)     r2, 0x1
             0x00040418: ee fb ec f7: std (l2rus)     r11, r2, sp[0x6]
             0x0004041c: ed fb ec f7: std (l2rus)     r11, r2, sp[0x5]
             0x00040420: 00 69:       ldc (ru6)       r4, 0x0
             0x00040422: ff 17:       nop (0r)        
             0x00040424: b0 fb ec f7: std (l2rus)     r4, r11, sp[0x4]
             0x00040428: 14 a7:       mkmsk (rus)     r5, 0x20
             0x0004042a: ff 17:       nop (0r)        
             0x0004042c: 07 f9 ec f7: std (l2rus)     r5, r4, sp[0x3]
             0x00040430: 00 f0 42 61: ldaw (lru6)     r5, dp[0x2]
             0x00040434: 12 f9 ec f7: std (l2rus)     r4, r5, sp[0x2]
             0x00040438: 00 f0 40 61: ldaw (lru6)     r5, dp[0x0]
             0x0004043c: 05 f9 ec f7: std (l2rus)     r5, r4, sp[0x1]
             0x00040440: ff 17:       nop (0r)        
             0x00040442: c1 56:       stw (ru6)       r11, sp[0x1]
             0x00040444: 00 f0 75 d3: bl (lu10)       0x375 <XUD_Manager>
             0x00040448: 47 fb ec ef: ldd (l2rus)     r5, r4, sp[0x7]
             0x0004044c: ff 17:       nop (0r)        
             0x0004044e: d0 77:       retsp (u6)      0x10

<__main__main_tile_0_task_Endpoint0_1>:
             0x00040450: ff 17:       nop (0r)        
             0x00040452: 82 7f:       dualentsp (u6)  0x2
             0x00040454: 04 f0 fa 58: ldw (lru6)      r3, dp[0x13a]
             0x00040458: ff 17:       nop (0r)        
             0x0004045a: 51 0a:       ldw (2rus)      r1, r0[0x5]
             0x0004045c: 0c 90:       add (2rus)      r0, r3, 0x0
             0x0004045e: 22 08:       ldw (2rus)      r2, r0[0x2]
             0x00040460: 00 f0 d0 d4: bl (lu10)       -0xd0 <Endpoint0>
             0x00040464: ff 17:       nop (0r)        
             0x00040466: c2 77:       retsp (u6)      0x2

<__main__main_tile_0_task_hid_mouse_2>:
             0x00040468: ff 17:       nop (0r)        
             0x0004046a: 82 7f:       dualentsp (u6)  0x2
             0x0004046c: ff 17:       nop (0r)        
             0x0004046e: 03 08:       ldw (2rus)      r0, r0[0x3]
             0x00040470: 00 f0 64 d4: bl (lu10)       -0x64 <_Shid_mouse_0>

<USB_ParseSetupPacket>:
             0x00040474: ff 17:       nop (0r)        
             0x00040476: 80 7f:       dualentsp (u6)  0x0
             0x00040478: 82 77:       extsp (u6)      0x2
             0x0004047a: ff 17:       nop (0r)        
             0x0004047c: 04 f9 ec f7: std (l2rus)     r5, r4, sp[0x0]
             0x00040480: e2 4f:       ecallf (1r)     r2
             0x00040482: ff 17:       nop (0r)        
             0x00040484: c0 68:       ldc (ru6)       r3, 0x0
             0x00040486: ff 17:       nop (0r)        
             0x00040488: ff 17:       nop (0r)        
             0x0004048a: b3 88:       ld8u (3r)       r11, r0[r3]
             0x0004048c: cc 91:       add (2rus)      r4, r11, 0x0
             0x0004048e: ff 17:       nop (0r)        
             0x00040490: d1 47:       zext (rus)      r4, 0x5
             0x00040492: ff 17:       nop (0r)        
             0x00040494: 47 f8 ec 8f: st8 (l3r)       r4, r1[r3]
             0x00040498: 1d ac:       shr (2rus)      r5, r11, 0x5
             0x0004049a: ff 17:       nop (0r)        
             0x0004049c: 16 47:       zext (rus)      r5, 0x2
             0x0004049e: 11 a7:       mkmsk (rus)     r4, 0x1
             0x000404a0: 94 fa ec 8f: st8 (l3r)       r5, r1[r4]
             0x000404a4: 1f ac:       shr (2rus)      r5, r11, 0x7
             0x000404a6: c2 6a:       ldc (ru6)       r11, 0x2
             0x000404a8: d7 fc ec 8f: st8 (l3r)       r5, r1[r11]
             0x000404ac: 12 c9:       lsu (3r)        r5, r4, r2
             0x000404ae: ff 17:       nop (0r)        
             0x000404b0: e5 4f:       ecallf (1r)     r5
             0x000404b2: ff 17:       nop (0r)        
             0x000404b4: 12 a7:       mkmsk (rus)     r4, 0x2
             0x000404b6: 90 8a:       ld8u (3r)       r5, r0[r4]
             0x000404b8: 94 fa ec 8f: st8 (l3r)       r5, r1[r4]
             0x000404bc: 12 c9:       lsu (3r)        r5, r4, r2
             0x000404be: ff 17:       nop (0r)        
             0x000404c0: e5 4f:       ecallf (1r)     r5
             0x000404c2: ff 17:       nop (0r)        
             0x000404c4: 94 92:       add (2rus)      r5, r1, 0x4
             0x000404c6: 80 8a:       ld8u (3r)       r4, r0[r4]
             0x000404c8: 80 a5:       shl (2rus)      r4, r4, 0x8
             0x000404ca: 33 8d:       ld8u (3r)       r11, r0[r11]
             0x000404cc: f3 45:       or (3r)         r11, r4, r11
             0x000404ce: ff 17:       nop (0r)        
             0x000404d0: 77 f9 ec 87: st16 (l3r)      r11, r5[r3]
             0x000404d4: c5 6a:       ldc (ru6)       r11, 0x5
             0x000404d6: ff 17:       nop (0r)        
             0x000404d8: ce c9:       lsu (3r)        r4, r11, r2
             0x000404da: ff 17:       nop (0r)        
             0x000404dc: e4 4f:       ecallf (1r)     r4
             0x000404de: ff 17:       nop (0r)        
             0x000404e0: 86 92:       add (2rus)      r4, r1, 0x6
             0x000404e2: 33 8d:       ld8u (3r)       r11, r0[r11]
             0x000404e4: bc a6:       shl (2rus)      r11, r11, 0x8
             0x000404e6: 44 69:       ldc (ru6)       r5, 0x4
             0x000404e8: ff 17:       nop (0r)        
             0x000404ea: 91 8a:       ld8u (3r)       r5, r0[r5]
             0x000404ec: 7d 44:       or (3r)         r11, r11, r5
             0x000404ee: ff 17:       nop (0r)        
             0x000404f0: 73 f9 ec 87: st16 (l3r)      r11, r4[r3]
             0x000404f4: 5f a7:       mkmsk (rus)     r11, 0x3
             0x000404f6: ff 17:       nop (0r)        
             0x000404f8: ae c9:       lsu (3r)        r2, r11, r2
             0x000404fa: ff 17:       nop (0r)        
             0x000404fc: e2 4f:       ecallf (1r)     r2
             0x000404fe: ff 17:       nop (0r)        
             0x00040500: 94 94:       add (2rus)      r1, r1, 0x8
             0x00040502: a3 8c:       ld8u (3r)       r2, r0[r11]
             0x00040504: a8 a4:       shl (2rus)      r2, r2, 0x8
             0x00040506: c6 6a:       ldc (ru6)       r11, 0x6
             0x00040508: ff 17:       nop (0r)        
             0x0004050a: 83 8c:       ld8u (3r)       r0, r0[r11]
             0x0004050c: 08 40:       or (3r)         r0, r2, r0
             0x0004050e: ff 17:       nop (0r)        
             0x00040510: 07 f8 ec 87: st16 (l3r)      r0, r1[r3]
             0x00040514: 04 f9 ec ef: ldd (l2rus)     r5, r4, sp[0x0]
             0x00040518: 82 67:       ldaw (ru6)      sp, sp[0x2]
             0x0004051a: ff 17:       nop (0r)        
             0x0004051c: ff 17:       nop (0r)        
             0x0004051e: c0 77:       retsp (u6)      0x0

<_SUSB_StandardRequests_0>:
             0x00040520: ff 17:       nop (0r)        
             0x00040522: ae 7f:       dualentsp (u6)  0x2e
             0x00040524: ff 17:       nop (0r)        
             0x00040526: 26 55:       stw (ru6)       r4, sp[0x26]
             0x00040528: ff 17:       nop (0r)        
             0x0004052a: 67 55:       stw (ru6)       r5, sp[0x27]
             0x0004052c: ff 17:       nop (0r)        
             0x0004052e: a8 55:       stw (ru6)       r6, sp[0x28]
             0x00040530: ff 17:       nop (0r)        
             0x00040532: e9 55:       stw (ru6)       r7, sp[0x29]
             0x00040534: ff 17:       nop (0r)        
             0x00040536: 2a 56:       stw (ru6)       r8, sp[0x2a]
             0x00040538: ff 17:       nop (0r)        
             0x0004053a: 6b 56:       stw (ru6)       r9, sp[0x2b]
             0x0004053c: ff 17:       nop (0r)        
             0x0004053e: ac 56:       stw (ru6)       r10, sp[0x2c]
             0x00040540: ff 17:       nop (0r)        
             0x00040542: 84 54:       stw (ru6)       r2, sp[0x4]
             0x00040544: 80 90:       add (2rus)      r8, r0, 0x0
             0x00040546: 43 54:       stw (ru6)       r1, sp[0x3]
             0x00040548: ff 17:       nop (0r)        
             0x0004054a: 34 5c:       ldw (ru6)       r0, sp[0x34]
             0x0004054c: ff 17:       nop (0r)        
             0x0004054e: 75 5c:       ldw (ru6)       r1, sp[0x35]
             0x00040550: ff 17:       nop (0r)        
             0x00040552: b2 5c:       ldw (ru6)       r2, sp[0x32]
             0x00040554: ff 17:       nop (0r)        
             0x00040556: 73 5c:       ldw (ru6)       r1, sp[0x33]
             0x00040558: ff 17:       nop (0r)        
             0x0004055a: f0 5e:       ldw (ru6)       r11, sp[0x30]
             0x0004055c: ff 17:       nop (0r)        
             0x0004055e: 71 5e:       ldw (ru6)       r9, sp[0x31]
             0x00040560: c2 69:       ldc (ru6)       r7, 0x2
             0x00040562: af 5c:       ldw (ru6)       r2, sp[0x2f]
             0x00040564: ff 17:       nop (0r)        
             0x00040566: 07 8c:       ld8u (3r)       r4, r9[r7]
             0x00040568: 43 a3:       shl (2rus)      r4, r4, 0x7
             0x0004056a: 15 a7:       mkmsk (rus)     r5, 0x1
             0x0004056c: ff 17:       nop (0r)        
             0x0004056e: 65 8c:       ld8u (3r)       r10, r9[r5]
             0x00040570: 69 a4:       shl (2rus)      r10, r10, 0x5
             0x00040572: ff 17:       nop (0r)        
             0x00040574: 08 44:       or (3r)         r4, r10, r4
             0x00040576: 80 6a:       ldc (ru6)       r10, 0x0
             0x00040578: ff 17:       nop (0r)        
             0x0004057a: 66 8e:       ld8u (3r)       r6, r9[r10]
             0x0004057c: 42 43:       or (3r)         r4, r4, r6
             0x0004057e: db a7:       mkmsk (rus)     r6, 0x7
             0x00040580: 68 c3:       lss (3r)        r6, r6, r4
             0x00040582: ff 17:       nop (0r)        
             0x00040584: 00 f0 97 71: bt (lru6)       r6, 0x17 <.label22>
             0x00040588: 00 f0 34 79: bf (lru6)       r4, 0x34 <.label23>
             0x0004058c: c1 b0:       eq (2rus)       r0, r4, 0x1
             0x0004058e: ff 17:       nop (0r)        
             0x00040590: 01 f0 15 78: bf (lru6)       r0, 0x55 <.label24>
             0x00040594: d2 a6:       mkmsk (rus)     r0, 0x2
             0x00040596: ff 17:       nop (0r)        
             0x00040598: ff 17:       nop (0r)        
             0x0004059a: 84 89:       ld8u (3r)       r0, r9[r0]
             0x0004059c: 83 b4:       eq (2rus)       r0, r0, 0xb
             0x0004059e: ff 17:       nop (0r)        
             0x000405a0: 05 f0 3d 78: bf (lru6)       r0, 0x17d <.label25>
             0x000405a4: 04 96:       add (2rus)      r0, r9, 0x8
             0x000405a6: 40 68:       ldc (ru6)       r1, 0x0
             0x000405a8: ff 17:       nop (0r)        
             0x000405aa: 01 80:       ld16s (3r)      r0, r0[r1]
             0x000405ac: 31 47:       zext (rus)      r0, 0x10
             0x000405ae: ff 17:       nop (0r)        
             0x000405b0: 05 f0 39 70: bt (lru6)       r0, 0x179 <.label25>
             0x000405b4: 04 68:       ldc (ru6)       r0, 0x4
             0x000405b6: ff 17:       nop (0r)        
             0x000405b8: f6 93:       add (2rus)      r3, r9, 0x6
             0x000405ba: 28 88:       ld8u (3r)       r2, r2[r0]
             0x000405bc: ff 17:       nop (0r)        
             0x000405be: 1d 80:       ld16s (3r)      r1, r3[r1]
             0x000405c0: 35 47:       zext (rus)      r1, 0x10
             0x000405c2: ff 17:       nop (0r)        
             0x000405c4: 26 c8:       lsu (3r)        r2, r1, r2
             0x000405c6: ff 17:       nop (0r)        
             0x000405c8: 03 f0 b7 78: bf (lru6)       r2, 0xf7 <.label26>
             0x000405cc: 64 aa:       shr (2rus)      r2, r1, 0x4
             0x000405ce: ff 17:       nop (0r)        
             0x000405d0: 03 f0 b5 70: bt (lru6)       r2, 0xf5 <.label26>
             0x000405d4: 05 f0 9a 60: ldaw (lru6)     r2, dp[0x15a]
             0x000405d8: ff 17:       nop (0r)        
             0x000405da: 84 89:       ld8u (3r)       r0, r9[r0]
             0x000405dc: 09 f8 ec 8f: st8 (l3r)       r0, r2[r1]
             0x000405e0: 03 f0 31 73: bu (lu6)        0xf1 <.label26>
.label22     0x000405e4: 02 f0 00 6a: ldc (lru6)      r8, 0x80
             0x000405e8: a0 35:       eq (3r)         r6, r4, r8
             0x000405ea: ff 17:       nop (0r)        
             0x000405ec: 01 f0 90 71: bt (lru6)       r6, 0x50 <.label27>
             0x000405f0: 02 f0 01 68: ldc (lru6)      r0, 0x81
             0x000405f4: c0 30:       eq (3r)         r0, r4, r0
             0x000405f6: ff 17:       nop (0r)        
             0x000405f8: 01 f0 28 78: bf (lru6)       r0, 0x68 <.label28>
             0x000405fc: d2 a6:       mkmsk (rus)     r0, 0x2
             0x000405fe: ff 17:       nop (0r)        
             0x00040600: ff 17:       nop (0r)        
             0x00040602: 84 89:       ld8u (3r)       r0, r9[r0]
             0x00040604: 82 b4:       eq (2rus)       r0, r0, 0xa
             0x00040606: ff 17:       nop (0r)        
             0x00040608: 05 f0 23 78: bf (lru6)       r0, 0x163 <.label25>
             0x0004060c: c4 93:       add (2rus)      r0, r9, 0x4
             0x0004060e: ff 17:       nop (0r)        
             0x00040610: ff 17:       nop (0r)        
             0x00040612: 82 84:       ld16s (3r)      r0, r0[r10]
             0x00040614: 31 47:       zext (rus)      r0, 0x10
             0x00040616: ff 17:       nop (0r)        
             0x00040618: 05 f0 1f 70: bt (lru6)       r0, 0x15f <.label25>
             0x0004061c: 04 96:       add (2rus)      r0, r9, 0x8
             0x0004061e: ff 17:       nop (0r)        
             0x00040620: ff 17:       nop (0r)        
             0x00040622: 82 84:       ld16s (3r)      r0, r0[r10]
             0x00040624: 31 47:       zext (rus)      r0, 0x10
             0x00040626: ff 17:       nop (0r)        
             0x00040628: 01 b0:       eq (2rus)       r0, r0, 0x1
             0x0004062a: ff 17:       nop (0r)        
             0x0004062c: 05 f0 1a 78: bf (lru6)       r0, 0x15a <.label25>
             0x00040630: 04 68:       ldc (ru6)       r0, 0x4
             0x00040632: ff 17:       nop (0r)        
             0x00040634: c6 93:       add (2rus)      r0, r9, 0x6
             0x00040636: 18 88:       ld8u (3r)       r1, r2[r0]
             0x00040638: ff 17:       nop (0r)        
             0x0004063a: 82 84:       ld16s (3r)      r0, r0[r10]
             0x0004063c: 31 47:       zext (rus)      r0, 0x10
             0x0004063e: ff 17:       nop (0r)        
             0x00040640: 11 c8:       lsu (3r)        r1, r0, r1
             0x00040642: ff 17:       nop (0r)        
             0x00040644: 05 f0 54 78: bf (lru6)       r1, 0x154 <.label25>
             0x00040648: 50 aa:       shr (2rus)      r1, r0, 0x4
             0x0004064a: ff 17:       nop (0r)        
             0x0004064c: 05 f0 52 70: bt (lru6)       r1, 0x152 <.label25>
             0x00040650: 05 f0 5a 60: ldaw (lru6)     r1, dp[0x15a]
             0x00040654: ff 17:       nop (0r)        
             0x00040656: 04 88:       ld8u (3r)       r0, r1[r0]
             0x00040658: 02 f0 3e 73: bu (lu6)        0xbe <.label29>
.label23     0x0004065c: d2 a6:       mkmsk (rus)     r0, 0x2
             0x0004065e: ff 17:       nop (0r)        
             0x00040660: ff 17:       nop (0r)        
             0x00040662: 84 89:       ld8u (3r)       r0, r9[r0]
             0x00040664: 13 b0:       eq (2rus)       r1, r0, 0x3
             0x00040666: ff 17:       nop (0r)        
             0x00040668: 01 f0 68 70: bt (lru6)       r1, 0x68 <.label30>
             0x0004066c: 51 b2:       eq (2rus)       r1, r0, 0x5
             0x0004066e: ff 17:       nop (0r)        
             0x00040670: 01 f0 77 78: bf (lru6)       r1, 0x77 <.label31>
             0x00040674: 64 94:       add (2rus)      r10, r9, 0x4
             0x00040676: c0 69:       ldc (ru6)       r7, 0x0
             0x00040678: ff 17:       nop (0r)        
             0x0004067a: cb 83:       ld16s (3r)      r0, r10[r7]
             0x0004067c: fe f3 40 68: ldc (lru6)      r1, 0xff80
             0x00040680: 01 38:       and (3r)        r0, r0, r1
             0x00040682: ff 17:       nop (0r)        
             0x00040684: 43 aa:       shr (2rus)      r0, r0, 0x7
             0x00040686: ff 17:       nop (0r)        
             0x00040688: 05 f0 03 70: bt (lru6)       r0, 0x143 <.label25>
             0x0004068c: c6 93:       add (2rus)      r0, r9, 0x6
             0x0004068e: ff 17:       nop (0r)        
             0x00040690: ff 17:       nop (0r)        
             0x00040692: 43 82:       ld16s (3r)      r0, r0[r7]
             0x00040694: 31 47:       zext (rus)      r0, 0x10
             0x00040696: ff 17:       nop (0r)        
             0x00040698: 04 f0 3f 70: bt (lru6)       r0, 0x13f <.label25>
             0x0004069c: 04 96:       add (2rus)      r0, r9, 0x8
             0x0004069e: ff 17:       nop (0r)        
             0x000406a0: ff 17:       nop (0r)        
             0x000406a2: 43 82:       ld16s (3r)      r0, r0[r7]
             0x000406a4: 31 47:       zext (rus)      r0, 0x10
             0x000406a6: ff 17:       nop (0r)        
             0x000406a8: 04 f0 3b 70: bt (lru6)       r0, 0x13b <.label25>
             0x000406ac: ff 17:       nop (0r)        
             0x000406ae: 04 5c:       ldw (ru6)       r0, sp[0x4]
             0x000406b0: 00 f0 ef d1: bl (lu10)       0x1ef <XUD_DoSetRequestStatus>
             0x000406b4: 04 f0 3d 70: bt (lru6)       r0, 0x13d <.label32>
             0x000406b8: e0 8f:       gettime (1r)    r0
             0x000406ba: ee 17:       get (0r)        r11, id
             0x000406bc: 00 f0 44 60: ldaw (lru6)     r1, dp[0x4]
             0x000406c0: ff 17:       nop (0r)        
             0x000406c2: 97 4c:       ldw (3r)        r1, r1[r11]
             0x000406c4: 0d f3 90 68: ldc (lru6)      r2, 0xc350
             0x000406c8: 02 10:       add (3r)        r0, r0, r2
             0x000406ca: ff 17:       nop (0r)        
             0x000406cc: d1 16:       setd (r2r)      res[r1], r0
             0x000406ce: ff 17:       nop (0r)        
             0x000406d0: 49 e8:       setc (ru6)      res[r1], 0x9
             0x000406d2: ff 17:       nop (0r)        
             0x000406d4: c1 b6:       in (2r)         r0, res[r1]
             0x000406d6: db 83:       ld16s (3r)      r1, r10[r7]
             0x000406d8: 35 47:       zext (rus)      r1, 0x10
             0x000406da: c3 83:       ld16s (3r)      r0, r8[r7]
             0x000406dc: 31 47:       zext (rus)      r0, 0x10
             0x000406de: ff 17:       nop (0r)        
             0x000406e0: 01 f0 1a d1: bl (lu10)       0x51a <XUD_SetDevAddr>
             0x000406e4: 04 f0 31 73: bu (lu6)        0x131 <.label32>
.label24     0x000406e8: c2 b0:       eq (2rus)       r0, r4, 0x2
             0x000406ea: ff 17:       nop (0r)        
             0x000406ec: 04 f0 2a 78: bf (lru6)       r0, 0x12a <.label25>
             0x000406f0: d2 a6:       mkmsk (rus)     r0, 0x2
             0x000406f2: ff 17:       nop (0r)        
             0x000406f4: ff 17:       nop (0r)        
             0x000406f6: 84 89:       ld8u (3r)       r0, r9[r0]
             0x000406f8: 11 b0:       eq (2rus)       r1, r0, 0x1
             0x000406fa: ff 17:       nop (0r)        
             0x000406fc: 02 f0 5b 78: bf (lru6)       r1, 0x9b <.label33>
             0x00040700: 04 96:       add (2rus)      r0, r9, 0x8
             0x00040702: 40 68:       ldc (ru6)       r1, 0x0
             0x00040704: ff 17:       nop (0r)        
             0x00040706: 01 80:       ld16s (3r)      r0, r0[r1]
             0x00040708: 31 47:       zext (rus)      r0, 0x10
             0x0004070a: ff 17:       nop (0r)        
             0x0004070c: 04 f0 22 70: bt (lru6)       r0, 0x122 <.label25>
             0x00040710: c4 93:       add (2rus)      r0, r9, 0x4
             0x00040712: ff 17:       nop (0r)        
             0x00040714: ff 17:       nop (0r)        
             0x00040716: 01 80:       ld16s (3r)      r0, r0[r1]
             0x00040718: 31 47:       zext (rus)      r0, 0x10
             0x0004071a: ff 17:       nop (0r)        
             0x0004071c: 04 f0 1e 70: bt (lru6)       r0, 0x11e <.label25>
             0x00040720: c6 93:       add (2rus)      r0, r9, 0x6
             0x00040722: ff 17:       nop (0r)        
             0x00040724: ff 17:       nop (0r)        
             0x00040726: 01 80:       ld16s (3r)      r0, r0[r1]
             0x00040728: 31 47:       zext (rus)      r0, 0x10
             0x0004072a: ff 17:       nop (0r)        
             0x0004072c: 02 f0 1c 73: bu (lu6)        0x9c <.label34>
.label27     0x00040730: 12 a7:       mkmsk (rus)     r4, 0x2
             0x00040732: ff 17:       nop (0r)        
             0x00040734: ff 17:       nop (0r)        
             0x00040736: 04 8c:       ld8u (3r)       r4, r9[r4]
             0x00040738: 01 f0 24 79: bf (lru6)       r4, 0x64 <.label35>
             0x0004073c: 62 b3:       eq (2rus)       r6, r4, 0x6
             0x0004073e: ff 17:       nop (0r)        
             0x00040740: 01 f0 b3 79: bf (lru6)       r6, 0x73 <.label36>
             0x00040744: 04 94:       add (2rus)      r4, r9, 0x4
             0x00040746: ff 17:       nop (0r)        
             0x00040748: ff 17:       nop (0r)        
             0x0004074a: c2 85:       ld16s (3r)      r8, r4[r10]
             0x0004074c: fc f3 00 69: ldc (lru6)      r4, 0xff00
             0x00040750: 00 3c:       and (3r)        r4, r8, r4
             0x00040752: b1 47:       zext (rus)      r8, 0x10
             0x00040754: 07 f0 bf 69: ldc (lru6)      r6, 0x1ff
             0x00040758: 68 c3:       lss (3r)        r6, r6, r4
             0x0004075a: ff 17:       nop (0r)        
             0x0004075c: 02 f0 95 71: bt (lru6)       r6, 0x95 <.label37>
             0x00040760: 04 f0 00 68: ldc (lru6)      r0, 0x100
             0x00040764: c0 30:       eq (3r)         r0, r4, r0
             0x00040766: ff 17:       nop (0r)        
             0x00040768: 04 f0 0b 78: bf (lru6)       r0, 0x10b <.label25>
             0x0004076c: b0 47:       zext (rus)      r8, 0x8
             0x0004076e: ff 17:       nop (0r)        
             0x00040770: 04 f0 09 72: bt (lru6)       r8, 0x109 <.label25>
             0x00040774: e3 4f:       ecallf (1r)     r3
             0x00040776: ff 17:       nop (0r)        
             0x00040778: 04 96:       add (2rus)      r0, r9, 0x8
             0x0004077a: 80 68:       ldc (ru6)       r2, 0x0
             0x0004077c: ff 17:       nop (0r)        
             0x0004077e: 02 80:       ld16s (3r)      r0, r0[r2]
             0x00040780: 31 47:       zext (rus)      r0, 0x10
             0x00040782: ff 17:       nop (0r)        
             0x00040784: ff 17:       nop (0r)        
             0x00040786: 01 54:       stw (ru6)       r0, sp[0x1]
             0x00040788: d2 6a:       ldc (ru6)       r11, 0x12
             0x0004078a: 42 54:       stw (ru6)       r1, sp[0x2]
             0x0004078c: ff 17:       nop (0r)        
             0x0004078e: 03 5c:       ldw (ru6)       r0, sp[0x3]
             0x00040790: 2c 90:       add (2rus)      r2, r3, 0x0
             0x00040792: 44 5c:       ldw (ru6)       r1, sp[0x4]
             0x00040794: bc 91:       add (2rus)      r3, r11, 0x0
             0x00040796: ff 17:       nop (0r)        
             0x00040798: 03 f0 20 73: bu (lu6)        0xe0 <.label38>
.label28     0x0004079c: 02 f0 02 68: ldc (lru6)      r0, 0x82
             0x000407a0: c0 30:       eq (3r)         r0, r4, r0
             0x000407a2: ff 17:       nop (0r)        
             0x000407a4: 03 f0 3c 78: bf (lru6)       r0, 0xfc <.label25>
             0x000407a8: d2 a6:       mkmsk (rus)     r0, 0x2
             0x000407aa: ff 17:       nop (0r)        
             0x000407ac: ff 17:       nop (0r)        
             0x000407ae: 84 89:       ld8u (3r)       r0, r9[r0]
             0x000407b0: 03 f0 39 70: bt (lru6)       r0, 0xf9 <.label25>
             0x000407b4: c4 93:       add (2rus)      r0, r9, 0x4
             0x000407b6: ff 17:       nop (0r)        
             0x000407b8: ff 17:       nop (0r)        
             0x000407ba: 82 84:       ld16s (3r)      r0, r0[r10]
             0x000407bc: 31 47:       zext (rus)      r0, 0x10
             0x000407be: ff 17:       nop (0r)        
             0x000407c0: 03 f0 35 70: bt (lru6)       r0, 0xf5 <.label25>
             0x000407c4: 04 96:       add (2rus)      r0, r9, 0x8
             0x000407c6: ff 17:       nop (0r)        
             0x000407c8: ff 17:       nop (0r)        
             0x000407ca: 82 84:       ld16s (3r)      r0, r0[r10]
             0x000407cc: 31 47:       zext (rus)      r0, 0x10
             0x000407ce: ff 17:       nop (0r)        
             0x000407d0: 02 b0:       eq (2rus)       r0, r0, 0x2
             0x000407d2: ff 17:       nop (0r)        
             0x000407d4: 03 f0 30 78: bf (lru6)       r0, 0xf0 <.label25>
             0x000407d8: 88 64:       ldaw (ru6)      r2, sp[0x8]
             0x000407da: ff 17:       nop (0r)        
             0x000407dc: 2a fd ec 8f: st8 (l3r)       r10, r2[r10]
             0x000407e0: 49 42:       or (3r)         r0, r2, r5
             0x000407e2: ff 17:       nop (0r)        
             0x000407e4: 22 fd ec 8f: st8 (l3r)       r10, r0[r10]
             0x000407e8: d6 93:       add (2rus)      r1, r9, 0x6
             0x000407ea: ff 17:       nop (0r)        
             0x000407ec: ff 17:       nop (0r)        
             0x000407ee: 96 84:       ld16s (3r)      r1, r1[r10]
             0x000407f0: b4 3c:       and (3r)        r3, r1, r8
             0x000407f2: 35 47:       zext (rus)      r1, 0x10
             0x000407f4: 03 f0 db 78: bf (lru6)       r3, 0xdb <.label39>
             0x000407f8: 97 47:       zext (rus)      r1, 0x7
             0x000407fa: ff 17:       nop (0r)        
             0x000407fc: 75 aa:       shr (2rus)      r3, r1, 0x5
             0x000407fe: ff 17:       nop (0r)        
             0x00040800: 03 f0 e5 70: bt (lru6)       r3, 0xe5 <.label25>
             0x00040804: 05 f0 ee 60: ldaw (lru6)     r3, dp[0x16e]
             0x00040808: 03 f0 19 73: bu (lu6)        0xd9 <.label40>
.label30     0x0004080c: c4 93:       add (2rus)      r0, r9, 0x4
             0x0004080e: c0 69:       ldc (ru6)       r7, 0x0
             0x00040810: ff 17:       nop (0r)        
             0x00040812: 43 82:       ld16s (3r)      r0, r0[r7]
             0x00040814: 31 47:       zext (rus)      r0, 0x10
             0x00040816: ff 17:       nop (0r)        
             0x00040818: 02 b0:       eq (2rus)       r0, r0, 0x2
             0x0004081a: ff 17:       nop (0r)        
             0x0004081c: 03 f0 1e 78: bf (lru6)       r0, 0xde <.label25>
             0x00040820: 04 96:       add (2rus)      r0, r9, 0x8
             0x00040822: ff 17:       nop (0r)        
             0x00040824: ff 17:       nop (0r)        
             0x00040826: 43 82:       ld16s (3r)      r0, r0[r7]
             0x00040828: 31 47:       zext (rus)      r0, 0x10
             0x0004082a: ff 17:       nop (0r)        
             0x0004082c: 03 f0 1a 70: bt (lru6)       r0, 0xda <.label25>
             0x00040830: 46 94:       add (2rus)      r8, r9, 0x6
             0x00040832: ff 17:       nop (0r)        
             0x00040834: ff 17:       nop (0r)        
             0x00040836: c3 83:       ld16s (3r)      r0, r8[r7]
             0x00040838: 31 47:       zext (rus)      r0, 0x10
             0x0004083a: ff 17:       nop (0r)        
             0x0004083c: 07 f0 7f 68: ldc (lru6)      r1, 0x1ff
             0x00040840: 14 c0:       lss (3r)        r1, r1, r0
             0x00040842: ff 17:       nop (0r)        
             0x00040844: 02 f0 50 70: bt (lru6)       r1, 0x90 <.label41>
             0x00040848: 04 f0 40 68: ldc (lru6)      r1, 0x100
             0x0004084c: 02 f0 3c 73: bu (lu6)        0xbc <.label42>
.label31     0x00040850: 81 b4:       eq (2rus)       r0, r0, 0x9
             0x00040852: ff 17:       nop (0r)        
             0x00040854: 03 f0 10 78: bf (lru6)       r0, 0xd0 <.label25>
             0x00040858: 04 96:       add (2rus)      r0, r9, 0x8
             0x0004085a: c0 69:       ldc (ru6)       r7, 0x0
             0x0004085c: ff 17:       nop (0r)        
             0x0004085e: 43 82:       ld16s (3r)      r0, r0[r7]
             0x00040860: 31 47:       zext (rus)      r0, 0x10
             0x00040862: ff 17:       nop (0r)        
             0x00040864: 03 f0 0c 70: bt (lru6)       r0, 0xcc <.label25>
             0x00040868: c6 93:       add (2rus)      r0, r9, 0x6
             0x0004086a: ff 17:       nop (0r)        
             0x0004086c: ff 17:       nop (0r)        
             0x0004086e: 43 82:       ld16s (3r)      r0, r0[r7]
             0x00040870: 31 47:       zext (rus)      r0, 0x10
             0x00040872: ff 17:       nop (0r)        
             0x00040874: 03 f0 08 70: bt (lru6)       r0, 0xc8 <.label25>
             0x00040878: 11 a7:       mkmsk (rus)     r4, 0x1
             0x0004087a: ff 17:       nop (0r)        
             0x0004087c: 02 f0 00 6a: ldc (lru6)      r8, 0x80
             0x00040880: 90 69:       ldc (ru6)       r6, 0x10
             0x00040882: 15 a7:       mkmsk (rus)     r5, 0x1
.label43     0x00040884: 40 45:       or (3r)         r0, r4, r8
             0x00040886: ff 17:       nop (0r)        
             0x00040888: 00 f0 f2 d1: bl (lu10)       0x1f2 <XUD_ResetEpStateByAddr>
             0x0004088c: 01 91:       add (2rus)      r4, r4, 0x1
             0x0004088e: ff 17:       nop (0r)        
             0x00040890: 02 33:       eq (3r)         r0, r4, r6
             0x00040892: ff 17:       nop (0r)        
             0x00040894: 00 f0 05 7c: bf (lru6)       r0, -0x5 <.label43>
             0x00040898: ff 17:       nop (0r)        
             0x0004089a: 04 5d:       ldw (ru6)       r4, sp[0x4]
.label44     0x0004089c: c4 90:       add (2rus)      r0, r5, 0x0
             0x0004089e: ff 17:       nop (0r)        
             0x000408a0: 00 f0 ec d1: bl (lu10)       0x1ec <XUD_ResetEpStateByAddr>
             0x000408a4: 15 91:       add (2rus)      r5, r5, 0x1
             0x000408a6: ff 17:       nop (0r)        
             0x000408a8: 06 33:       eq (3r)         r0, r5, r6
             0x000408aa: ff 17:       nop (0r)        
             0x000408ac: 00 f0 05 7c: bf (lru6)       r0, -0x5 <.label44>
             0x000408b0: 04 68:       ldc (ru6)       r0, 0x4
             0x000408b2: ff 17:       nop (0r)        
             0x000408b4: ff 17:       nop (0r)        
             0x000408b6: 84 89:       ld8u (3r)       r0, r9[r0]
             0x000408b8: 0c f0 7e 60: ldaw (lru6)     r1, dp[0x33e]
             0x000408bc: 47 fa ec 8f: st8 (l3r)       r0, r1[r7]
             0x000408c0: c0 90:       add (2rus)      r0, r4, 0x0
             0x000408c2: ff 17:       nop (0r)        
             0x000408c4: 00 f0 6a d1: bl (lu10)       0x16a <XUD_DoSetRequestStatus>
             0x000408c8: 02 f0 38 73: bu (lu6)        0xb8 <.label32>
.label35     0x000408cc: c8 66:       ldaw (ru6)      r11, sp[0x8]
             0x000408ce: ff 17:       nop (0r)        
             0x000408d0: cd 43:       or (3r)         r0, r11, r5
             0x000408d2: 40 68:       ldc (ru6)       r1, 0x0
             0x000408d4: 11 f8 ec 8f: st8 (l3r)       r1, r0[r1]
             0x000408d8: d3 a6:       mkmsk (rus)     r0, 0x3
             0x000408da: ff 17:       nop (0r)        
             0x000408dc: ff 17:       nop (0r)        
             0x000408de: 08 88:       ld8u (3r)       r0, r2[r0]
             0x000408e0: 42 aa:       shr (2rus)      r0, r0, 0x6
             0x000408e2: ff 17:       nop (0r)        
             0x000408e4: d1 46:       zext (rus)      r0, 0x1
             0x000408e6: ff 17:       nop (0r)        
             0x000408e8: 8d f9 ec 8f: st8 (l3r)       r0, r11[r1]
             0x000408ec: 04 96:       add (2rus)      r0, r9, 0x8
             0x000408ee: ff 17:       nop (0r)        
             0x000408f0: ff 17:       nop (0r)        
             0x000408f2: 01 80:       ld16s (3r)      r0, r0[r1]
             0x000408f4: 31 47:       zext (rus)      r0, 0x10
             0x000408f6: ff 17:       nop (0r)        
             0x000408f8: ff 17:       nop (0r)        
             0x000408fa: 01 54:       stw (ru6)       r0, sp[0x1]
             0x000408fc: 01 f0 38 68: ldc (lru6)      r0, 0x78
             0x00040900: c2 68:       ldc (ru6)       r3, 0x2
             0x00040902: 02 54:       stw (ru6)       r0, sp[0x2]
             0x00040904: ff 17:       nop (0r)        
             0x00040906: 03 5c:       ldw (ru6)       r0, sp[0x3]
             0x00040908: ac 91:       add (2rus)      r2, r11, 0x0
             0x0004090a: 44 5c:       ldw (ru6)       r1, sp[0x4]
             0x0004090c: 02 f0 03 73: bu (lu6)        0x83 <.label38>
.label36     0x00040910: 40 b5:       eq (2rus)       r0, r4, 0x8
             0x00040912: ff 17:       nop (0r)        
             0x00040914: 02 f0 20 78: bf (lru6)       r0, 0xa0 <.label25>
             0x00040918: c4 93:       add (2rus)      r0, r9, 0x4
             0x0004091a: ff 17:       nop (0r)        
             0x0004091c: ff 17:       nop (0r)        
             0x0004091e: 82 84:       ld16s (3r)      r0, r0[r10]
             0x00040920: 31 47:       zext (rus)      r0, 0x10
             0x00040922: ff 17:       nop (0r)        
             0x00040924: 02 f0 1c 70: bt (lru6)       r0, 0x9c <.label25>
             0x00040928: c6 93:       add (2rus)      r0, r9, 0x6
             0x0004092a: ff 17:       nop (0r)        
             0x0004092c: ff 17:       nop (0r)        
             0x0004092e: 82 84:       ld16s (3r)      r0, r0[r10]
             0x00040930: 31 47:       zext (rus)      r0, 0x10
             0x00040932: ff 17:       nop (0r)        
             0x00040934: 02 f0 18 70: bt (lru6)       r0, 0x98 <.label25>
             0x00040938: 04 96:       add (2rus)      r0, r9, 0x8
             0x0004093a: ff 17:       nop (0r)        
             0x0004093c: ff 17:       nop (0r)        
             0x0004093e: 82 84:       ld16s (3r)      r0, r0[r10]
             0x00040940: 31 47:       zext (rus)      r0, 0x10
             0x00040942: ff 17:       nop (0r)        
             0x00040944: 01 b0:       eq (2rus)       r0, r0, 0x1
             0x00040946: ff 17:       nop (0r)        
             0x00040948: 02 f0 13 78: bf (lru6)       r0, 0x93 <.label25>
             0x0004094c: 0c f0 3e 60: ldaw (lru6)     r0, dp[0x33e]
             0x00040950: ff 17:       nop (0r)        
             0x00040952: 82 8c:       ld8u (3r)       r0, r0[r10]
.label29     0x00040954: 88 64:       ldaw (ru6)      r2, sp[0x8]
             0x00040956: ff 17:       nop (0r)        
             0x00040958: 8a fc ec 8f: st8 (l3r)       r0, r2[r10]
             0x0004095c: 01 f0 38 68: ldc (lru6)      r0, 0x78
             0x00040960: f4 90:       add (2rus)      r3, r5, 0x0
             0x00040962: 02 54:       stw (ru6)       r0, sp[0x2]
             0x00040964: ff 17:       nop (0r)        
             0x00040966: c1 54:       stw (ru6)       r3, sp[0x1]
             0x00040968: 01 f0 2a 73: bu (lu6)        0x6a <.label45>
.label33     0x0004096c: 03 b0:       eq (2rus)       r0, r0, 0x3
             0x0004096e: ff 17:       nop (0r)        
             0x00040970: 02 f0 09 78: bf (lru6)       r0, 0x89 <.label25>
             0x00040974: 14 96:       add (2rus)      r1, r9, 0x8
             0x00040976: 00 68:       ldc (ru6)       r0, 0x0
             0x00040978: ff 17:       nop (0r)        
             0x0004097a: 14 80:       ld16s (3r)      r1, r1[r0]
             0x0004097c: 35 47:       zext (rus)      r1, 0x10
             0x0004097e: ff 17:       nop (0r)        
             0x00040980: 02 f0 45 70: bt (lru6)       r1, 0x85 <.label25>
             0x00040984: d4 93:       add (2rus)      r1, r9, 0x4
             0x00040986: ff 17:       nop (0r)        
             0x00040988: ff 17:       nop (0r)        
             0x0004098a: 14 80:       ld16s (3r)      r1, r1[r0]
             0x0004098c: 35 47:       zext (rus)      r1, 0x10
             0x0004098e: ff 17:       nop (0r)        
             0x00040990: 02 f0 41 70: bt (lru6)       r1, 0x81 <.label25>
             0x00040994: d6 93:       add (2rus)      r1, r9, 0x6
             0x00040996: ff 17:       nop (0r)        
             0x00040998: ff 17:       nop (0r)        
             0x0004099a: 04 80:       ld16s (3r)      r0, r1[r0]
             0x0004099c: 31 47:       zext (rus)      r0, 0x10
             0x0004099e: d5 a6:       mkmsk (rus)     r1, 0x1
.label34     0x000409a0: 00 f0 c4 d0: bl (lu10)       0xc4 <SetEndpointHalt>
             0x000409a4: 01 f0 3c 70: bt (lru6)       r0, 0x7c <.label25>
.label26     0x000409a8: ff 17:       nop (0r)        
             0x000409aa: 04 5c:       ldw (ru6)       r0, sp[0x4]
             0x000409ac: 00 f0 30 d1: bl (lu10)       0x130 <XUD_DoSetRequestStatus>
             0x000409b0: 01 f0 3e 73: bu (lu6)        0x7e <.label32>
.label37     0x000409b4: 0b f0 7f 68: ldc (lru6)      r1, 0x2ff
             0x000409b8: 54 c2:       lss (3r)        r1, r1, r4
             0x000409ba: ff 17:       nop (0r)        
             0x000409bc: 00 f0 48 70: bt (lru6)       r1, 0x8 <.label46>
             0x000409c0: 08 f0 40 68: ldc (lru6)      r1, 0x200
             0x000409c4: d1 30:       eq (3r)         r1, r4, r1
             0x000409c6: ff 17:       nop (0r)        
             0x000409c8: 01 f0 73 78: bf (lru6)       r1, 0x73 <.label25>
             0x000409cc: b9 fa ec 8f: st8 (l3r)       r7, r2[r5]
             0x000409d0: e2 4f:       ecallf (1r)     r2
             0x000409d2: ff 17:       nop (0r)        
             0x000409d4: 14 96:       add (2rus)      r1, r9, 0x8
             0x000409d6: c0 68:       ldc (ru6)       r3, 0x0
             0x000409d8: ff 17:       nop (0r)        
             0x000409da: 17 80:       ld16s (3r)      r1, r1[r3]
             0x000409dc: 01 f0 0a 73: bu (lu6)        0x4a <.label47>
.label46     0x000409e0: 0c f0 40 68: ldc (lru6)      r1, 0x300
             0x000409e4: d1 30:       eq (3r)         r1, r4, r1
             0x000409e6: ff 17:       nop (0r)        
             0x000409e8: 00 f0 6c 70: bt (lru6)       r1, 0x2c <.label48>
             0x000409ec: 18 f0 40 68: ldc (lru6)      r1, 0x600
             0x000409f0: d1 30:       eq (3r)         r1, r4, r1
             0x000409f2: ff 17:       nop (0r)        
             0x000409f4: 00 f0 7c 78: bf (lru6)       r1, 0x3c <.label49>
             0x000409f8: b0 47:       zext (rus)      r8, 0x8
             0x000409fa: ff 17:       nop (0r)        
             0x000409fc: 01 f0 26 72: bt (lru6)       r8, 0x66 <.label25>
             0x00040a00: 85 64:       ldaw (ru6)      r2, sp[0x5]
             0x00040a02: ca 6a:       ldc (ru6)       r11, 0xa
             0x00040a04: 3a fd ec 8f: st8 (l3r)       r11, r2[r10]
             0x00040a08: 49 42:       or (3r)         r0, r2, r5
             0x00040a0a: 46 68:       ldc (ru6)       r1, 0x6
             0x00040a0c: 92 fc ec 8f: st8 (l3r)       r1, r0[r10]
             0x00040a10: 4b 42:       or (3r)         r0, r2, r7
             0x00040a12: 8f 8a:       ld8u (3r)       r4, r3[r7]
             0x00040a14: c2 fc ec 8f: st8 (l3r)       r4, r0[r10]
             0x00040a18: d2 a6:       mkmsk (rus)     r0, 0x2
             0x00040a1a: ff 17:       nop (0r)        
             0x00040a1c: 40 90:       add (2rus)      r4, r0, 0x0
             0x00040a1e: ff 17:       nop (0r)        
             0x00040a20: 48 42:       or (3r)         r0, r2, r4
             0x00040a22: 8c 8a:       ld8u (3r)       r4, r3[r4]
             0x00040a24: c2 fc ec 8f: st8 (l3r)       r4, r0[r10]
             0x00040a28: 04 68:       ldc (ru6)       r0, 0x4
             0x00040a2a: ff 17:       nop (0r)        
             0x00040a2c: ff 17:       nop (0r)        
             0x00040a2e: 4c 88:       ld8u (3r)       r4, r3[r0]
             0x00040a30: 48 f8 ec 8f: st8 (l3r)       r4, r2[r0]
             0x00040a34: 05 68:       ldc (ru6)       r0, 0x5
             0x00040a36: ff 17:       nop (0r)        
             0x00040a38: ff 17:       nop (0r)        
             0x00040a3a: 4c 88:       ld8u (3r)       r4, r3[r0]
             0x00040a3c: 48 f8 ec 8f: st8 (l3r)       r4, r2[r0]
             0x00040a40: ff 17:       nop (0r)        
             0x00040a42: 0d 88:       ld8u (3r)       r0, r3[r1]
             0x00040a44: 09 f8 ec 8f: st8 (l3r)       r0, r2[r1]
             0x00040a48: d3 a6:       mkmsk (rus)     r0, 0x3
             0x00040a4a: ff 17:       nop (0r)        
             0x00040a4c: ff 17:       nop (0r)        
             0x00040a4e: 1c 88:       ld8u (3r)       r1, r3[r0]
             0x00040a50: 18 f8 ec 8f: st8 (l3r)       r1, r2[r0]
             0x00040a54: 11 68:       ldc (ru6)       r0, 0x11
             0x00040a56: ff 17:       nop (0r)        
             0x00040a58: 48 68:       ldc (ru6)       r1, 0x8
             0x00040a5a: 0c 88:       ld8u (3r)       r0, r3[r0]
             0x00040a5c: 09 f8 ec 8f: st8 (l3r)       r0, r2[r1]
             0x00040a60: 09 68:       ldc (ru6)       r0, 0x9
             0x00040a62: ff 17:       nop (0r)        
             0x00040a64: a8 f8 ec 8f: st8 (l3r)       r10, r2[r0]
             0x00040a68: 04 96:       add (2rus)      r0, r9, 0x8
             0x00040a6a: ff 17:       nop (0r)        
             0x00040a6c: ff 17:       nop (0r)        
             0x00040a6e: 82 84:       ld16s (3r)      r0, r0[r10]
             0x00040a70: 31 47:       zext (rus)      r0, 0x10
             0x00040a72: ff 17:       nop (0r)        
             0x00040a74: ff 17:       nop (0r)        
             0x00040a76: 01 54:       stw (ru6)       r0, sp[0x1]
             0x00040a78: ff 17:       nop (0r)        
             0x00040a7a: c2 56:       stw (ru6)       r11, sp[0x2]
             0x00040a7c: ff 17:       nop (0r)        
             0x00040a7e: 03 5c:       ldw (ru6)       r0, sp[0x3]
             0x00040a80: bc 91:       add (2rus)      r3, r11, 0x0
             0x00040a82: 44 5c:       ldw (ru6)       r1, sp[0x4]
             0x00040a84: 00 f0 25 73: bu (lu6)        0x25 <.label38>
.label41     0x00040a88: 0b f0 7f 68: ldc (lru6)      r1, 0x2ff
             0x00040a8c: 14 c0:       lss (3r)        r1, r1, r0
             0x00040a8e: ff 17:       nop (0r)        
             0x00040a90: 00 f0 64 70: bt (lru6)       r1, 0x24 <.label50>
             0x00040a94: 08 f0 40 68: ldc (lru6)      r1, 0x200
             0x00040a98: 00 f0 29 73: bu (lu6)        0x29 <.label42>
.label48     0x00040a9c: 88 65:       ldaw (ru6)      r6, sp[0x8]
             0x00040a9e: ff 17:       nop (0r)        
             0x00040aa0: 09 43:       or (3r)         r0, r6, r5
             0x00040aa2: d6 a6:       mkmsk (rus)     r1, 0x2
             0x00040aa4: 92 fc ec 8f: st8 (l3r)       r1, r0[r10]
             0x00040aa8: b0 47:       zext (rus)      r8, 0x8
             0x00040aaa: 04 68:       ldc (ru6)       r0, 0x4
             0x00040aac: 80 c9:       lsu (3r)        r0, r8, r0
             0x00040aae: ff 17:       nop (0r)        
             0x00040ab0: 00 f0 39 78: bf (lru6)       r0, 0x39 <.label25>
             0x00040ab4: d4 a6:       mkmsk (rus)     r1, 0x20
             0x00040ab6: 4c 4e:       ldw (3r)        r4, r11[r8]
             0x00040ab8: c0 90:       add (2rus)      r0, r4, 0x0
             0x00040aba: ff 17:       nop (0r)        
             0x00040abc: 01 f0 1e d0: bl (lu10)       0x41e <_safe_strlen>
             0x00040ac0: 01 f0 02 7a: bf (lru6)       r8, 0x42 <.label51>
             0x00040ac4: dc f8 ec 2f: lda16 (l3r)     r1, r7[r0]
             0x00040ac8: 5a fd ec 8f: st8 (l3r)       r1, r6[r10]
             0x00040acc: 24 96:       add (2rus)      r2, r9, 0x8
             0x00040ace: ff 17:       nop (0r)        
             0x00040ad0: ff 17:       nop (0r)        
             0x00040ad2: 0a 85:       ld16s (3r)      r8, r2[r10]
             0x00040ad4: b1 47:       zext (rus)      r8, 0x10
             0x00040ad6: ff 17:       nop (0r)        
             0x00040ad8: 91 c1:       lss (3r)        r1, r8, r1
             0x00040ada: ff 17:       nop (0r)        
             0x00040adc: 01 f0 45 70: bt (lru6)       r1, 0x45 <.label52>
             0x00040ae0: 91 a0:       shl (2rus)      r9, r0, 0x1
             0x00040ae2: ff 17:       nop (0r)        
             0x00040ae4: 01 f0 04 73: bu (lu6)        0x44 <.label53>
.label49     0x00040ae8: 1c f0 40 68: ldc (lru6)      r1, 0x700
             0x00040aec: d1 30:       eq (3r)         r1, r4, r1
             0x00040aee: ff 17:       nop (0r)        
             0x00040af0: 00 f0 69 78: bf (lru6)       r1, 0x29 <.label25>
             0x00040af4: d7 a6:       mkmsk (rus)     r1, 0x3
             0x00040af6: ff 17:       nop (0r)        
             0x00040af8: 59 fa ec 8f: st8 (l3r)       r1, r2[r5]
             0x00040afc: e2 4f:       ecallf (1r)     r2
             0x00040afe: ff 17:       nop (0r)        
             0x00040b00: 14 96:       add (2rus)      r1, r9, 0x8
             0x00040b02: ff 17:       nop (0r)        
             0x00040b04: ff 17:       nop (0r)        
             0x00040b06: 96 84:       ld16s (3r)      r1, r1[r10]
.label47     0x00040b08: 35 47:       zext (rus)      r1, 0x10
             0x00040b0a: ff 17:       nop (0r)        
             0x00040b0c: ff 17:       nop (0r)        
             0x00040b0e: 41 54:       stw (ru6)       r1, sp[0x1]
             0x00040b10: e2 68:       ldc (ru6)       r3, 0x22
             0x00040b12: 02 54:       stw (ru6)       r0, sp[0x2]
.label45     0x00040b14: ff 17:       nop (0r)        
             0x00040b16: 03 5c:       ldw (ru6)       r0, sp[0x3]
             0x00040b18: ff 17:       nop (0r)        
             0x00040b1a: 44 5c:       ldw (ru6)       r1, sp[0x4]
.label38     0x00040b1c: 00 f0 b2 d0: bl (lu10)       0xb2 <XUD_DoGetRequest>
             0x00040b20: 00 f0 22 73: bu (lu6)        0x22 <.label32>
.label50     0x00040b24: 0c f0 40 68: ldc (lru6)      r1, 0x300
             0x00040b28: 11 30:       eq (3r)         r1, r0, r1
             0x00040b2a: ff 17:       nop (0r)        
             0x00040b2c: 00 f0 46 70: bt (lru6)       r1, 0x6 <.label54>
             0x00040b30: 10 f0 40 68: ldc (lru6)      r1, 0x400
             0x00040b34: 11 30:       eq (3r)         r1, r0, r1
             0x00040b36: ff 17:       nop (0r)        
             0x00040b38: 00 f0 43 70: bt (lru6)       r1, 0x3 <.label54>
             0x00040b3c: 14 f0 40 68: ldc (lru6)      r1, 0x500
.label42     0x00040b40: 01 30:       eq (3r)         r0, r0, r1
             0x00040b42: ff 17:       nop (0r)        
             0x00040b44: 00 f0 14 78: bf (lru6)       r0, 0x14 <.label25>
.label54     0x00040b48: ff 17:       nop (0r)        
             0x00040b4a: 04 5c:       ldw (ru6)       r0, sp[0x4]
             0x00040b4c: 00 f0 c8 d0: bl (lu10)       0xc8 <XUD_DoSetRequestStatus>
             0x00040b50: 00 f0 16 70: bt (lru6)       r0, 0x16 <.label32>
             0x00040b54: ff 17:       nop (0r)        
             0x00040b56: d3 83:       ld16s (3r)      r1, r8[r7]
             0x00040b58: 35 47:       zext (rus)      r1, 0x10
             0x00040b5a: 03 5c:       ldw (ru6)       r0, sp[0x3]
             0x00040b5c: 00 f0 48 d1: bl (lu10)       0x148 <XUD_SetTestMode>
             0x00040b60: 00 f0 0d 73: bu (lu6)        0xd <.label25>
.label39     0x00040b64: 75 aa:       shr (2rus)      r3, r1, 0x5
             0x00040b66: ff 17:       nop (0r)        
             0x00040b68: 00 f0 cb 70: bt (lru6)       r3, 0xb <.label25>
             0x00040b6c: 05 f0 de 60: ldaw (lru6)     r3, dp[0x15e]
.label40     0x00040b70: ff 17:       nop (0r)        
             0x00040b72: 1d 80:       ld16s (3r)      r1, r3[r1]
             0x00040b74: 9a fc ec 8f: st8 (l3r)       r1, r2[r10]
             0x00040b78: 94 ac:       shr (2rus)      r1, r1, 0x8
             0x00040b7a: ff 17:       nop (0r)        
             0x00040b7c: 92 fc ec 8f: st8 (l3r)       r1, r0[r10]
             0x00040b80: 01 f0 38 68: ldc (lru6)      r0, 0x78
             0x00040b84: ff 17:       nop (0r)        
             0x00040b86: 02 54:       stw (ru6)       r0, sp[0x2]
             0x00040b88: ff 17:       nop (0r)        
             0x00040b8a: c1 55:       stw (ru6)       r7, sp[0x1]
             0x00040b8c: ff 17:       nop (0r)        
             0x00040b8e: 03 5c:       ldw (ru6)       r0, sp[0x3]
             0x00040b90: fc 90:       add (2rus)      r3, r7, 0x0
             0x00040b92: 44 5c:       ldw (ru6)       r1, sp[0x4]
             0x00040b94: 00 f0 1f 77: bu (lu6)        -0x1f <.label38>
.label25     0x00040b98: ff 17:       nop (0r)        
             0x00040b9a: 03 5c:       ldw (ru6)       r0, sp[0x3]
             0x00040b9c: 00 f0 d4 d0: bl (lu10)       0xd4 <XUD_SetStall>
             0x00040ba0: ff 17:       nop (0r)        
             0x00040ba2: 04 5c:       ldw (ru6)       r0, sp[0x4]
             0x00040ba4: 00 f0 d2 d0: bl (lu10)       0xd2 <XUD_SetStall>
             0x00040ba8: c4 90:       add (2rus)      r0, r5, 0x0
             0x00040baa: ff 17:       nop (0r)        
.label32     0x00040bac: ff 17:       nop (0r)        
             0x00040bae: ac 5e:       ldw (ru6)       r10, sp[0x2c]
             0x00040bb0: ff 17:       nop (0r)        
             0x00040bb2: 2a 5e:       ldw (ru6)       r8, sp[0x2a]
             0x00040bb4: ff 17:       nop (0r)        
             0x00040bb6: 6b 5e:       ldw (ru6)       r9, sp[0x2b]
             0x00040bb8: ff 17:       nop (0r)        
             0x00040bba: a8 5d:       ldw (ru6)       r6, sp[0x28]
             0x00040bbc: ff 17:       nop (0r)        
             0x00040bbe: e9 5d:       ldw (ru6)       r7, sp[0x29]
             0x00040bc0: ff 17:       nop (0r)        
             0x00040bc2: 26 5d:       ldw (ru6)       r4, sp[0x26]
             0x00040bc4: ff 17:       nop (0r)        
             0x00040bc6: 67 5d:       ldw (ru6)       r5, sp[0x27]
             0x00040bc8: ff 17:       nop (0r)        
             0x00040bca: ee 77:       retsp (u6)      0x2e
.label51     0x00040bcc: d0 90:       add (2rus)      r1, r4, 0x0
             0x00040bce: b2 90:       add (2rus)      r11, r0, 0x2
             0x00040bd0: 80 68:       ldc (ru6)       r2, 0x0
             0x00040bd2: ff 17:       nop (0r)        
             0x00040bd4: 7a f9 ec 8f: st8 (l3r)       r11, r6[r2]
             0x00040bd8: 34 96:       add (2rus)      r3, r9, 0x8
             0x00040bda: ff 17:       nop (0r)        
             0x00040bdc: ff 17:       nop (0r)        
             0x00040bde: 8e 80:       ld16s (3r)      r8, r3[r2]
             0x00040be0: b1 47:       zext (rus)      r8, 0x10
             0x00040be2: ff 17:       nop (0r)        
             0x00040be4: 23 c6:       lss (3r)        r2, r8, r11
             0x00040be6: ff 17:       nop (0r)        
             0x00040be8: 00 f0 92 70: bt (lru6)       r2, 0x12 <.label55>
             0x00040bec: 90 90:       add (2rus)      r9, r0, 0x0
             0x00040bee: ff 17:       nop (0r)        
             0x00040bf0: 00 f0 11 73: bu (lu6)        0x11 <.label56>
.label52     0x00040bf4: 12 9a:       sub (2rus)      r9, r8, 0x2
             0x00040bf6: ff 17:       nop (0r)        
.label53     0x00040bf8: 5e a7:       mkmsk (rus)     r11, 0x2
             0x00040bfa: c5 c3:       lss (3r)        r0, r9, r5
             0x00040bfc: 00 f0 0b 70: bt (lru6)       r0, 0xb <.label57>
             0x00040c00: 00 68:       ldc (ru6)       r0, 0x0
             0x00040c02: ff 17:       nop (0r)        
.label58     0x00040c04: 9a 91:       add (2rus)      r1, r10, 0x2
             0x00040c06: ff 17:       nop (0r)        
             0x00040c08: a9 f9 ec 97: ashr (l2rus)    r2, r10, 0x1
             0x00040c0c: 7a 15:       add (3r)        r3, r6, r10
             0x00040c0e: e2 88:       ld8u (3r)       r2, r4[r2]
             0x00040c10: 6f fa ec 8f: st8 (l3r)       r2, r3[r7]
             0x00040c14: 8f fc ec 8f: st8 (l3r)       r0, r3[r11]
             0x00040c18: a5 c4:       lss (3r)        r2, r1, r9
             0x00040c1a: ff 17:       nop (0r)        
             0x00040c1c: a4 90:       add (2rus)      r10, r1, 0x0
             0x00040c1e: ff 17:       nop (0r)        
             0x00040c20: 00 f0 88 74: bt (lru6)       r2, -0x8 <.label58>
             0x00040c24: ff 17:       nop (0r)        
             0x00040c26: 04 5d:       ldw (ru6)       r4, sp[0x4]
             0x00040c28: 00 f0 0d 73: bu (lu6)        0xd <.label59>
.label57     0x00040c2c: ff 17:       nop (0r)        
             0x00040c2e: 04 5d:       ldw (ru6)       r4, sp[0x4]
             0x00040c30: 00 f0 0b 73: bu (lu6)        0xb <.label59>
.label55     0x00040c34: 12 9a:       sub (2rus)      r9, r8, 0x2
             0x00040c36: ff 17:       nop (0r)        
.label56     0x00040c38: e5 c3:       lss (3r)        r2, r9, r5
             0x00040c3a: 04 5d:       ldw (ru6)       r4, sp[0x4]
             0x00040c3c: 00 f0 88 70: bt (lru6)       r2, 0x8 <.label59>
             0x00040c40: 28 8f:       not (2r)        r2, r8
             0x00040c42: ff 17:       nop (0r)        
             0x00040c44: 00 f0 e9 6e: ldw (lru6)      r11, cp[0x29]
             0x00040c48: 8c 19:       sub (3r)        r0, r11, r0
             0x00040c4a: ff 17:       nop (0r)        
             0x00040c4c: 32 c0:       lss (3r)        r3, r0, r2
             0x00040c4e: ff 17:       nop (0r)        
             0x00040c50: 00 f0 c1 70: bt (lru6)       r3, 0x1 <.label60>
             0x00040c54: 20 90:       add (2rus)      r2, r0, 0x0
             0x00040c56: ff 17:       nop (0r)        
.label60     0x00040c58: ae 19:       sub (3r)        r2, r11, r2
             0x00040c5a: 0b 43:       or (3r)         r0, r6, r7
             0x00040c5c: 00 f0 62 d1: bl (lu10)       0x162 <memcpy> <__memcpy_4>
.label59     0x00040c60: b6 91:       add (2rus)      r3, r9, 0x2
             0x00040c62: ff 17:       nop (0r)        
             0x00040c64: 01 f0 38 68: ldc (lru6)      r0, 0x78
             0x00040c68: ff 17:       nop (0r)        
             0x00040c6a: 02 54:       stw (ru6)       r0, sp[0x2]
             0x00040c6c: 88 64:       ldaw (ru6)      r2, sp[0x8]
             0x00040c6e: 01 56:       stw (ru6)       r8, sp[0x1]
             0x00040c70: d0 90:       add (2rus)      r1, r4, 0x0
             0x00040c72: 03 5c:       ldw (ru6)       r0, sp[0x3]
             0x00040c74: 01 f0 17 77: bu (lu6)        -0x57 <.label38>

<USB_GetSetupPacket>:
             0x00040c78: ff 17:       nop (0r)        
             0x00040c7a: a2 7f:       dualentsp (u6)  0x22
             0x00040c7c: ff 17:       nop (0r)        
             0x00040c7e: 20 55:       stw (ru6)       r4, sp[0x20]
             0x00040c80: 48 90:       add (2rus)      r4, r2, 0x0
             0x00040c82: 61 55:       stw (ru6)       r5, sp[0x21]
             0x00040c84: 42 64:       ldaw (ru6)      r1, sp[0x2]
             0x00040c86: 81 64:       ldaw (ru6)      r2, sp[0x1]
             0x00040c88: 01 f0 f8 68: ldc (lru6)      r3, 0x78
             0x00040c8c: 00 f0 20 d0: bl (lu10)       0x20 <XUD_GetSetupBuffer>
             0x00040c90: 50 90:       add (2rus)      r5, r0, 0x0
             0x00040c92: ff 17:       nop (0r)        
             0x00040c94: 00 f0 44 71: bt (lru6)       r5, 0x4 <.label61>
             0x00040c98: 02 64:       ldaw (ru6)      r0, sp[0x2]
             0x00040c9a: ff 17:       nop (0r)        
             0x00040c9c: 01 f0 b8 68: ldc (lru6)      r2, 0x78
             0x00040ca0: d0 90:       add (2rus)      r1, r4, 0x0
             0x00040ca2: ff 17:       nop (0r)        
             0x00040ca4: 00 f0 0d d6: bl (lu10)       -0x20d <USB_ParseSetupPacket>
.label61     0x00040ca8: c4 90:       add (2rus)      r0, r5, 0x0
             0x00040caa: 20 5d:       ldw (ru6)       r4, sp[0x20]
             0x00040cac: ff 17:       nop (0r)        
             0x00040cae: 61 5d:       ldw (ru6)       r5, sp[0x21]
             0x00040cb0: ff 17:       nop (0r)        
             0x00040cb2: e2 77:       retsp (u6)      0x22

<SetEndpointHalt>:
             0x00040cb4: ff 17:       nop (0r)        
             0x00040cb6: 82 7f:       dualentsp (u6)  0x2
             0x00040cb8: 02 f0 80 68: ldc (lru6)      r2, 0x80
             0x00040cbc: 22 38:       and (3r)        r2, r0, r2
             0x00040cbe: ff 17:       nop (0r)        
             0x00040cc0: 00 f0 88 78: bf (lru6)       r2, 0x8 <.label62>
             0x00040cc4: 20 90:       add (2rus)      r2, r0, 0x0
             0x00040cc6: ff 17:       nop (0r)        
             0x00040cc8: 9b 47:       zext (rus)      r2, 0x7
             0x00040cca: ff 17:       nop (0r)        
             0x00040ccc: 79 aa:       shr (2rus)      r3, r2, 0x5
             0x00040cce: ff 17:       nop (0r)        
             0x00040cd0: 00 f0 cb 70: bt (lru6)       r3, 0xb <.label63>
             0x00040cd4: 05 f0 ee 60: ldaw (lru6)     r3, dp[0x16e]
             0x00040cd8: 1e f8 ec 87: st16 (l3r)      r1, r3[r2]
             0x00040cdc: 00 f0 46 70: bt (lru6)       r1, 0x6 <.label64>
             0x00040ce0: 00 f0 09 73: bu (lu6)        0x9 <.label65>
.label62     0x00040ce4: 61 aa:       shr (2rus)      r2, r0, 0x5
             0x00040ce6: ff 17:       nop (0r)        
             0x00040ce8: 00 f0 86 70: bt (lru6)       r2, 0x6 <.label66>
             0x00040cec: 05 f0 9e 60: ldaw (lru6)     r2, dp[0x15e]
             0x00040cf0: 18 f8 ec 87: st16 (l3r)      r1, r2[r0]
             0x00040cf4: 00 f0 44 78: bf (lru6)       r1, 0x4 <.label65>
.label64     0x00040cf8: 00 f0 c2 d0: bl (lu10)       0xc2 <XUD_SetStallByAddr>
             0x00040cfc: 00 f0 03 73: bu (lu6)        0x3 <.label67>
.label63     0x00040d00: d1 a6:       mkmsk (rus)     r0, 0x1
             0x00040d02: c2 77:       retsp (u6)      0x2
.label66     0x00040d04: d1 a6:       mkmsk (rus)     r0, 0x1
             0x00040d06: c2 77:       retsp (u6)      0x2
.label65     0x00040d08: 00 f0 c8 d0: bl (lu10)       0xc8 <XUD_ClearStallByAddr>
.label67     0x00040d0c: 00 68:       ldc (ru6)       r0, 0x0
             0x00040d0e: c2 77:       retsp (u6)      0x2

<XUD_GetSetupBuffer>:
             0x00040d10: ff 17:       nop (0r)        
             0x00040d12: 82 7f:       dualentsp (u6)  0x2
             0x00040d14: 00 f0 7a d0: bl (lu10)       0x7a <XUD_GetSetupData>
             0x00040d18: ff 17:       nop (0r)        
             0x00040d1a: c2 77:       retsp (u6)      0x2

<XUD_SetBuffer>:
             0x00040d1c: ff 17:       nop (0r)        
             0x00040d1e: 84 7f:       dualentsp (u6)  0x4
             0x00040d20: c0 68:       ldc (ru6)       r3, 0x0
             0x00040d22: c2 54:       stw (ru6)       r3, sp[0x2]
             0x00040d24: ff 17:       nop (0r)        
             0x00040d26: c1 54:       stw (ru6)       r3, sp[0x1]
             0x00040d28: 00 f0 a3 d0: bl (lu10)       0xa3 <XUD_SetData>
             0x00040d2c: ff 17:       nop (0r)        
             0x00040d2e: c4 77:       retsp (u6)      0x4

<_SXUD_SetBuffer_EpMax_0>:
             0x00040d30: ff 17:       nop (0r)        
             0x00040d32: 8c 7f:       dualentsp (u6)  0xc
             0x00040d34: 06 f9 ec f7: std (l2rus)     r5, r4, sp[0x2]
             0x00040d38: 2f f9 ec f7: std (l2rus)     r7, r6, sp[0x3]
             0x00040d3c: 44 fc ec f7: std (l2rus)     r9, r8, sp[0x4]
             0x00040d40: 6c 90:       add (2rus)      r6, r3, 0x0
             0x00040d42: 8a 56:       stw (ru6)       r10, sp[0xa]
             0x00040d44: 98 90:       add (2rus)      r9, r2, 0x0
             0x00040d46: 44 90:       add (2rus)      r4, r1, 0x0
             0x00040d48: 50 90:       add (2rus)      r5, r0, 0x0
             0x00040d4a: ff 17:       nop (0r)        
             0x00040d4c: 01 f0 00 68: ldc (lru6)      r0, 0x40
             0x00040d50: 81 cc:       lsu (3r)        r0, r0, r9
             0x00040d52: ff 17:       nop (0r)        
             0x00040d54: 00 f0 04 70: bt (lru6)       r0, 0x4 <.label68>
             0x00040d58: c0 68:       ldc (ru6)       r3, 0x0
             0x00040d5a: 82 55:       stw (ru6)       r6, sp[0x2]
             0x00040d5c: c4 90:       add (2rus)      r0, r5, 0x0
             0x00040d5e: c1 54:       stw (ru6)       r3, sp[0x1]
             0x00040d60: d0 90:       add (2rus)      r1, r4, 0x0
             0x00040d62: a4 91:       add (2rus)      r2, r9, 0x0
             0x00040d64: 00 f0 1a 73: bu (lu6)        0x1a <.label69>
.label68     0x00040d68: c0 68:       ldc (ru6)       r3, 0x0
             0x00040d6a: 82 55:       stw (ru6)       r6, sp[0x2]
             0x00040d6c: ff 17:       nop (0r)        
             0x00040d6e: c1 54:       stw (ru6)       r3, sp[0x1]
             0x00040d70: 01 f0 c0 69: ldc (lru6)      r7, 0x40
             0x00040d74: c4 90:       add (2rus)      r0, r5, 0x0
             0x00040d76: d0 90:       add (2rus)      r1, r4, 0x0
             0x00040d78: ec 90:       add (2rus)      r2, r7, 0x0
             0x00040d7a: ff 17:       nop (0r)        
             0x00040d7c: 00 f0 8e d0: bl (lu10)       0x8e <XUD_SetData>
             0x00040d80: 00 f0 14 70: bt (lru6)       r0, 0x14 <.label70>
             0x00040d84: 00 f0 27 6e: ldw (lru6)      r8, cp[0x27]
             0x00040d88: 94 16:       add (3r)        r9, r9, r8
             0x00040d8a: ff 17:       nop (0r)        
             0x00040d8c: 4d cd:       lsu (3r)        r0, r7, r9
             0x00040d8e: ff 17:       nop (0r)        
             0x00040d90: 00 f0 0b 78: bf (lru6)       r0, 0xb <.label71>
             0x00040d94: 01 f0 80 6a: ldc (lru6)      r10, 0x40
.label72     0x00040d98: 00 68:       ldc (ru6)       r0, 0x0
             0x00040d9a: 82 55:       stw (ru6)       r6, sp[0x2]
             0x00040d9c: c4 90:       add (2rus)      r0, r5, 0x0
             0x00040d9e: 01 54:       stw (ru6)       r0, sp[0x1]
             0x00040da0: d0 90:       add (2rus)      r1, r4, 0x0
             0x00040da2: a8 91:       add (2rus)      r2, r10, 0x0
             0x00040da4: fc 90:       add (2rus)      r3, r7, 0x0
             0x00040da6: ff 17:       nop (0r)        
             0x00040da8: 00 f0 83 d0: bl (lu10)       0x83 <XUD_SetData>
             0x00040dac: 00 f0 09 70: bt (lru6)       r0, 0x9 <.label70>
             0x00040db0: be 15:       add (3r)        r7, r7, r10
             0x00040db2: 94 16:       add (3r)        r9, r9, r8
             0x00040db4: 01 f0 01 68: ldc (lru6)      r0, 0x41
             0x00040db8: 84 c9:       lsu (3r)        r0, r9, r0
             0x00040dba: ff 17:       nop (0r)        
             0x00040dbc: 00 f0 0a 7c: bf (lru6)       r0, -0xa <.label72>
.label71     0x00040dc0: 00 68:       ldc (ru6)       r0, 0x0
             0x00040dc2: 82 55:       stw (ru6)       r6, sp[0x2]
             0x00040dc4: c4 90:       add (2rus)      r0, r5, 0x0
             0x00040dc6: 01 54:       stw (ru6)       r0, sp[0x1]
             0x00040dc8: d0 90:       add (2rus)      r1, r4, 0x0
             0x00040dca: a4 91:       add (2rus)      r2, r9, 0x0
             0x00040dcc: fc 90:       add (2rus)      r3, r7, 0x0
             0x00040dce: ff 17:       nop (0r)        
.label69     0x00040dd0: 00 f0 79 d0: bl (lu10)       0x79 <XUD_SetData>
.label70     0x00040dd4: ff 17:       nop (0r)        
             0x00040dd6: 8a 5e:       ldw (ru6)       r10, sp[0xa]
             0x00040dd8: 44 fc ec ef: ldd (l2rus)     r9, r8, sp[0x4]
             0x00040ddc: 2f f9 ec ef: ldd (l2rus)     r7, r6, sp[0x3]
             0x00040de0: 06 f9 ec ef: ldd (l2rus)     r5, r4, sp[0x2]
             0x00040de4: ff 17:       nop (0r)        
             0x00040de6: cc 77:       retsp (u6)      0xc

<XUD_DoGetRequest>:
             0x00040de8: 04 f0 88 7f: dualentsp (lu6) 0x108
             0x00040dec: 04 f0 04 55: stw (lru6)      r4, sp[0x104]
             0x00040df0: 04 f0 45 55: stw (lru6)      r5, sp[0x105]
             0x00040df4: 04 f0 86 55: stw (lru6)      r6, sp[0x106]
             0x00040df8: 04 f0 c7 55: stw (lru6)      r7, sp[0x107]
             0x00040dfc: 6c 90:       add (2rus)      r6, r3, 0x0
             0x00040dfe: 54 90:       add (2rus)      r5, r1, 0x0
             0x00040e00: 40 90:       add (2rus)      r4, r0, 0x0
             0x00040e02: ff 17:       nop (0r)        
             0x00040e04: 04 f0 c9 5d: ldw (lru6)      r7, sp[0x109]
             0x00040e08: 04 f0 ca 5c: ldw (lru6)      r3, sp[0x10a]
             0x00040e0c: 0b c3:       lss (3r)        r0, r6, r7
             0x00040e0e: 78 91:       add (2rus)      r11, r6, 0x0
             0x00040e10: 00 f0 01 70: bt (lru6)       r0, 0x1 <.label73>
             0x00040e14: 7c 91:       add (2rus)      r11, r7, 0x0
             0x00040e16: ff 17:       nop (0r)        
.label73     0x00040e18: c4 90:       add (2rus)      r0, r5, 0x0
             0x00040e1a: 18 90:       add (2rus)      r1, r2, 0x0
             0x00040e1c: ac 91:       add (2rus)      r2, r11, 0x0
             0x00040e1e: ff 17:       nop (0r)        
             0x00040e20: 00 f0 3d d4: bl (lu10)       -0x3d <_SXUD_SetBuffer_EpMax_0>
             0x00040e24: 00 f0 0d 70: bt (lru6)       r0, 0xd <.label74>
             0x00040e28: 0b cb:       lsu (3r)        r0, r6, r7
             0x00040e2a: ff 17:       nop (0r)        
             0x00040e2c: 00 f0 07 78: bf (lru6)       r0, 0x7 <.label75>
             0x00040e30: da 47:       zext (rus)      r6, 0x6
             0x00040e32: ff 17:       nop (0r)        
             0x00040e34: 00 f0 85 71: bt (lru6)       r6, 0x5 <.label75>
             0x00040e38: 10 f0 00 68: ldc (lru6)      r0, 0x400
             0x00040e3c: 80 68:       ldc (ru6)       r2, 0x0
             0x00040e3e: 02 54:       stw (ru6)       r0, sp[0x2]
             0x00040e40: 44 64:       ldaw (ru6)      r1, sp[0x4]
             0x00040e42: 81 54:       stw (ru6)       r2, sp[0x1]
             0x00040e44: c4 90:       add (2rus)      r0, r5, 0x0
             0x00040e46: 38 90:       add (2rus)      r3, r2, 0x0
             0x00040e48: 00 f0 5b d0: bl (lu10)       0x5b <XUD_SetData>
.label75     0x00040e4c: 44 64:       ldaw (ru6)      r1, sp[0x4]
             0x00040e4e: 83 64:       ldaw (ru6)      r2, sp[0x3]
             0x00040e50: 10 f0 c0 68: ldc (lru6)      r3, 0x400
             0x00040e54: c0 90:       add (2rus)      r0, r4, 0x0
             0x00040e56: ff 17:       nop (0r)        
             0x00040e58: 00 f0 44 d0: bl (lu10)       0x44 <XUD_GetData>
.label74     0x00040e5c: 04 f0 86 5d: ldw (lru6)      r6, sp[0x106]
             0x00040e60: 04 f0 c7 5d: ldw (lru6)      r7, sp[0x107]
             0x00040e64: 04 f0 04 5d: ldw (lru6)      r4, sp[0x104]
             0x00040e68: 04 f0 45 5d: ldw (lru6)      r5, sp[0x105]
             0x00040e6c: 04 f0 c8 77: retsp (lu6)     0x108

<XUD_DoSetRequestStatus>:
             0x00040e70: 48 68:       ldc (ru6)       r1, 0x8
             0x00040e72: 86 7f:       dualentsp (u6)  0x6
             0x00040e74: 80 68:       ldc (ru6)       r2, 0x0
             0x00040e76: 42 54:       stw (ru6)       r1, sp[0x2]
             0x00040e78: 44 64:       ldaw (ru6)      r1, sp[0x4]
             0x00040e7a: 81 54:       stw (ru6)       r2, sp[0x1]
             0x00040e7c: 38 90:       add (2rus)      r3, r2, 0x0
             0x00040e7e: ff 17:       nop (0r)        
             0x00040e80: 00 f0 4d d0: bl (lu10)       0x4d <XUD_SetData>
             0x00040e84: ff 17:       nop (0r)        
             0x00040e86: c6 77:       retsp (u6)      0x6

<XUD_ResetEndpoint>:
             0x00040e88: ff 17:       nop (0r)        
             0x00040e8a: 80 7f:       dualentsp (u6)  0x0
             0x00040e8c: 82 77:       extsp (u6)      0x2
             0x00040e8e: ff 17:       nop (0r)        
             0x00040e90: ff 17:       nop (0r)        
             0x00040e92: 00 55:       stw (ru6)       r4, sp[0x0]
             0x00040e94: ff 17:       nop (0r)        
             0x00040e96: 22 08:       ldw (2rus)      r2, r0[0x2]
             0x00040e98: de 86:       inct (2r)       r3, res[r2]
             0x00040e9a: ff 17:       nop (0r)        
             0x00040e9c: 00 f0 43 78: bf (lru6)       r1, 0x3 <.label76>
             0x00040ea0: ff 17:       nop (0r)        
             0x00040ea2: 34 08:       ldw (2rus)      r3, r1[0x0]
             0x00040ea4: ff 17:       nop (0r)        
             0x00040ea6: 3e 08:       ldw (2rus)      r3, r3[0x2]
             0x00040ea8: 5f 87:       inct (2r)       r11, res[r3]
             0x00040eaa: ff 17:       nop (0r)        
.label76     0x00040eac: ff 17:       nop (0r)        
             0x00040eae: 40 08:       ldw (2rus)      r4, r0[0x0]
             0x00040eb0: c0 6a:       ldc (ru6)       r11, 0x0
             0x00040eb2: ff 17:       nop (0r)        
             0x00040eb4: ff 17:       nop (0r)        
             0x00040eb6: 70 01:       stw (2rus)      r11, r4[0x0]
             0x00040eb8: ff 17:       nop (0r)        
             0x00040eba: 31 05:       stw (2rus)      r11, r0[0x9]
             0x00040ebc: 00 f0 47 78: bf (lru6)       r1, 0x7 <.label77>
             0x00040ec0: ff 17:       nop (0r)        
             0x00040ec2: 04 08:       ldw (2rus)      r0, r1[0x0]
             0x00040ec4: ff 17:       nop (0r)        
             0x00040ec6: 10 08:       ldw (2rus)      r1, r0[0x0]
             0x00040ec8: ff 17:       nop (0r)        
             0x00040eca: b4 00:       stw (2rus)      r11, r1[0x0]
             0x00040ecc: ff 17:       nop (0r)        
             0x00040ece: 31 05:       stw (2rus)      r11, r0[0x9]
             0x00040ed0: c2 b6:       in (2r)         r0, res[r2]
             0x00040ed2: ff 17:       nop (0r)        
             0x00040ed4: c3 b6:       in (2r)         r0, res[r3]
             0x00040ed6: ff 17:       nop (0r)        
             0x00040ed8: 00 f0 01 73: bu (lu6)        0x1 <.label78>
.label77     0x00040edc: c2 b6:       in (2r)         r0, res[r2]
             0x00040ede: ff 17:       nop (0r)        
.label78     0x00040ee0: 82 67:       ldaw (ru6)      sp, sp[0x2]
             0x00040ee2: 00 5d:       ldw (ru6)       r4, sp[0x0]
             0x00040ee4: ff 17:       nop (0r)        
             0x00040ee6: c0 77:       retsp (u6)      0x0

<XUD_InitEp>:
             0x00040ee8: c0 b6:       in (2r)         r0, res[r0]
             0x00040eea: 80 7f:       dualentsp (u6)  0x0
             0x00040eec: ff 17:       nop (0r)        
             0x00040eee: c0 77:       retsp (u6)      0x0

<XUD_SetStall>:
             0x00040ef0: ff 17:       nop (0r)        
             0x00040ef2: 82 7f:       dualentsp (u6)  0x2
             0x00040ef4: ff 17:       nop (0r)        
             0x00040ef6: 80 0c:       ldw (2rus)      r0, r0[0x8]
             0x00040ef8: 00 f0 42 d0: bl (lu10)       0x42 <XUD_SetStallByAddr>
             0x00040efc: ff 17:       nop (0r)        
             0x00040efe: c2 77:       retsp (u6)      0x2

<XUD_GetSetupData>:
             0x00040f00: 00 f0 44 77: entsp (lu6)     0x4
             0x00040f04: 01 55:       stw (ru6)       r4, sp[0x1]
             0x00040f06: 82 56:       stw (ru6)       r10, sp[0x2]

<XUD_GetSetupData_>:
             0x00040f08: 40 08:       ldw (2rus)      r4, r0[0x0]
             0x00040f0a: 31 0d:       ldw (2rus)      r11, r0[0x9]
             0x00040f0c: ea 72:       bt (ru6)        r11, 0x2a <XUD_GetSetupData_Reset>
             0x00040f0e: 13 00:       stw (2rus)      r1, r0[0x3]
             0x00040f10: c0 00:       stw (2rus)      r0, r4[0x0]
             0x00040f12: a2 08:       ldw (2rus)      r10, r0[0x2]

<XUD_GetSetupData_Retry>:
             0x00040f14: be bf:       testct (2r)     r11, res[r10]
             0x00040f16: e5 72:       bt (ru6)        r11, 0x25 <XUD_GetSetupData_Reset>

<XUD_GetSetupData_NoReq>:
             0x00040f18: 26 b7:       in (2r)         r1, res[r10]
             0x00040f1a: be bf:       testct (2r)     r11, res[r10]
             0x00040f1c: cf 7a:       bf (ru6)        r11, 0xf <XUD_GetSetupData_GotOut>
             0x00040f1e: be 87:       inct (2r)       r11, res[r10]

<XUD_GetSetupData_ResetPid>:
             0x00040f20: cb 6a:       ldc (ru6)       r11, 0xb
             0x00040f22: f0 02:       stw (2rus)      r11, r0[0x4]
             0x00040f24: 0a f0 c0 6a: ldc (lru6)      r11, 0x280
             0x00040f28: 33 15:       add (3r)        r11, r0, r11
             0x00040f2a: 01 f0 8b 6a: ldc (lru6)      r10, 0x4b
             0x00040f2e: 6c 04:       stw (2rus)      r10, r11[0x4]
             0x00040f30: 08 68:       ldc (ru6)       r0, 0x8
             0x00040f32: 08 00:       stw (2rus)      r0, r2[0x0]
             0x00040f34: 00 68:       ldc (ru6)       r0, 0x0
             0x00040f36: 82 5e:       ldw (ru6)       r10, sp[0x2]
             0x00040f38: 01 5d:       ldw (ru6)       r4, sp[0x1]
             0x00040f3a: c4 77:       retsp (u6)      0x4

<XUD_GetSetupData_GotOut>:
             0x00040f3c: be 8f:       int (2r)        r11, res[r10]
             0x00040f3e: 3e a0:       shl (2rus)      r3, r3, 0x2
             0x00040f40: bf 11:       add (3r)        r3, r11, r3

<XUD_GetSetupData_CheckPid>:
             0x00040f42: f2 0a:       ldw (2rus)      r11, r0[0x6]
             0x00040f44: be ae:       shr (2rus)      r11, r11, 0x18
             0x00040f46: e0 0a:       ldw (2rus)      r10, r0[0x4]
             0x00040f48: bb fe ec 0f: xor (l3r)       r11, r10, r11
             0x00040f4c: e3 76:       bt (ru6)        r11, -0x23 <XUD_GetSetupData_>

<XUD_GetSetupData_PidOkay>:
             0x00040f4e: f1 0a:       ldw (2rus)      r11, r0[0x5]
             0x00040f50: c4 7a:       bf (ru6)        r11, 0x4 <XUD_GetSetupData_ReturnOk>

<XUD_GetSetupData_PidToggle>:
             0x00040f52: c8 6a:       ldc (ru6)       r11, 0x8
             0x00040f54: ab fe ec 0f: xor (l3r)       r10, r10, r11
             0x00040f58: e0 02:       stw (2rus)      r10, r0[0x4]

<XUD_GetSetupData_ReturnOk>:
             0x00040f5a: 0e 98:       sub (2rus)      r0, r3, 0x2
             0x00040f5c: 82 5e:       ldw (ru6)       r10, sp[0x2]
             0x00040f5e: 01 5d:       ldw (ru6)       r4, sp[0x1]
             0x00040f60: c4 77:       retsp (u6)      0x4

<XUD_GetSetupData_Reset>:
             0x00040f62: d0 a6:       mkmsk (rus)     r0, 0x20
             0x00040f64: 82 5e:       ldw (ru6)       r10, sp[0x2]
             0x00040f66: 01 5d:       ldw (ru6)       r4, sp[0x1]
             0x00040f68: c4 77:       retsp (u6)      0x4
             0x00040f6a: 00 00:       stw (2rus)      r0, r0[0x0]

<XUD_GetData>:
             0x00040f6c: 00 f0 44 77: entsp (lu6)     0x4
             0x00040f70: 81 56:       stw (ru6)       r10, sp[0x1]
             0x00040f72: b4 90:       add (2rus)      r11, r1, 0x0

<XUD_GetData_>:
             0x00040f74: 21 0d:       ldw (2rus)      r10, r0[0x9]
             0x00040f76: 9c 72:       bt (ru6)        r10, 0x1c <XUD_GetData_Reset>
             0x00040f78: 13 00:       stw (2rus)      r1, r0[0x3]
             0x00040f7a: a0 08:       ldw (2rus)      r10, r0[0x0]
             0x00040f7c: 88 01:       stw (2rus)      r0, r10[0x0]

<XUD_GetData_Retry>:
             0x00040f7e: a2 08:       ldw (2rus)      r10, r0[0x2]
             0x00040f80: be bf:       testct (2r)     r11, res[r10]
             0x00040f82: d6 72:       bt (ru6)        r11, 0x16 <XUD_GetData_Reset>

<XUD_GetData_DataEnd>:
             0x00040f84: 2e b7:       in (2r)         r3, res[r10]
             0x00040f86: be 8f:       int (2r)        r11, res[r10]
             0x00040f88: 3f aa:       shr (2rus)      r11, r11, 0x3

<XUD_GetDataCalcDataLength>:
             0x00040f8a: 3e a0:       shl (2rus)      r3, r3, 0x2
             0x00040f8c: bf 11:       add (3r)        r3, r11, r3

<XUD_GetData_CheckPid>:
             0x00040f8e: f2 0a:       ldw (2rus)      r11, r0[0x6]
             0x00040f90: be ae:       shr (2rus)      r11, r11, 0x18
             0x00040f92: e0 0a:       ldw (2rus)      r10, r0[0x4]
             0x00040f94: bb fe ec 0f: xor (l3r)       r11, r10, r11
             0x00040f98: d3 76:       bt (ru6)        r11, -0x13 <XUD_GetData_>

<XUD_GetData_PidOkay>:
             0x00040f9a: f1 0a:       ldw (2rus)      r11, r0[0x5]
             0x00040f9c: c4 7a:       bf (ru6)        r11, 0x4 <XUD_GetData_ReturnOk>

<XUD_GetData_PidToggle>:
             0x00040f9e: c8 6a:       ldc (ru6)       r11, 0x8
             0x00040fa0: ab fe ec 0f: xor (l3r)       r10, r10, r11
             0x00040fa4: e0 02:       stw (2rus)      r10, r0[0x4]

<XUD_GetData_ReturnOk>:
             0x00040fa6: 0e 98:       sub (2rus)      r0, r3, 0x2
             0x00040fa8: 08 00:       stw (2rus)      r0, r2[0x0]
             0x00040faa: 00 68:       ldc (ru6)       r0, 0x0
             0x00040fac: 81 5e:       ldw (ru6)       r10, sp[0x1]
             0x00040fae: c4 77:       retsp (u6)      0x4

<XUD_GetData_Reset>:
             0x00040fb0: d0 a6:       mkmsk (rus)     r0, 0x20

<Return>:
             0x00040fb2: 81 5e:       ldw (ru6)       r10, sp[0x1]
             0x00040fb4: c4 77:       retsp (u6)      0x4
             0x00040fb6: 00 00:       stw (2rus)      r0, r0[0x0]

<XUD_SetData>:
             0x00040fb8: 00 f0 48 77: entsp (lu6)     0x8
             0x00040fbc: 45 55:       stw (ru6)       r5, sp[0x5]
             0x00040fbe: 86 56:       stw (ru6)       r10, sp[0x6]

<XUD_SetDataRetry>:
             0x00040fc0: 00 55:       stw (ru6)       r4, sp[0x0]
             0x00040fc2: 31 0d:       ldw (2rus)      r11, r0[0x9]
             0x00040fc4: dd 72:       bt (ru6)        r11, 0x1d <XUD_SetData_Reset>

<XUD_SetData_NoReq>:
             0x00040fc6: 17 10:       add (3r)        r1, r1, r3

<CalcTailLength>:
             0x00040fc8: 79 a2:       shl (2rus)      r3, r2, 0x5
             0x00040fca: 9f 47:       zext (rus)      r3, 0x7

<SetupLoopTerm>:
             0x00040fcc: 2a a8:       shr (2rus)      r2, r2, 0x2

<AdjustBufferPointer>:
             0x00040fce: 5a a0:       shl (2rus)      r5, r2, 0x2
             0x00040fd0: 55 12:       add (3r)        r1, r1, r5

<NegativeIndex>:
             0x00040fd2: ca 96:       neg (2r)        r2, r2
             0x00040fd4: 62 02:       stw (2rus)      r2, r0[0x6]

<XUD_SetData_DataRdy>:
             0x00040fd6: 20 08:       ldw (2rus)      r2, r0[0x0]
             0x00040fd8: 13 00:       stw (2rus)      r1, r0[0x3]

<StoreTailLength>:
             0x00040fda: 73 02:       stw (2rus)      r3, r0[0x7]
             0x00040fdc: 08 00:       stw (2rus)      r0, r2[0x0]
             0x00040fde: a2 08:       ldw (2rus)      r10, r0[0x2]
             0x00040fe0: be bf:       testct (2r)     r11, res[r10]
             0x00040fe2: ce 72:       bt (ru6)        r11, 0xe <XUD_SetData_Reset>
             0x00040fe4: ae b7:       in (2r)         r11, res[r10]

<XUD_SetData_LoadEpType>:
             0x00040fe6: f1 0a:       ldw (2rus)      r11, r0[0x5]
             0x00040fe8: c6 7a:       bf (ru6)        r11, 0x6 <XUD_SetData_DonePid>

<XUD_SetData_PidToggle>:
             0x00040fea: f0 0a:       ldw (2rus)      r11, r0[0x4]
             0x00040fec: 02 f0 08 69: ldc (lru6)      r4, 0x88
             0x00040ff0: 7c fc ec 0f: xor (l3r)       r11, r11, r4
             0x00040ff4: f0 02:       stw (2rus)      r11, r0[0x4]

<XUD_SetData_DonePid>:
             0x00040ff6: 00 68:       ldc (ru6)       r0, 0x0

<XUD_SetData_Return>:
             0x00040ff8: 00 5d:       ldw (ru6)       r4, sp[0x0]
             0x00040ffa: 45 5d:       ldw (ru6)       r5, sp[0x5]
             0x00040ffc: 86 5e:       ldw (ru6)       r10, sp[0x6]
             0x00040ffe: c8 77:       retsp (u6)      0x8

<XUD_SetData_Reset>:
             0x00041000: d0 a6:       mkmsk (rus)     r0, 0x20
             0x00041002: 06 77:       bu (u6)         -0x6 <XUD_SetData_Return>

<XUD_SetStallByAddr>:
             0x00041004: 00 f0 40 77: entsp (lu6)     0x0
             0x00041008: 9e 68:       ldc (ru6)       r2, 0x1e
             0x0004100a: 02 f0 c0 6a: ldc (lru6)      r11, 0x80
             0x0004100e: 3c 3a:       and (3r)        r11, r11, r0
             0x00041010: c7 7a:       bf (ru6)        r11, 0x7 <XUD_SetStallByAddr_OUT>
             0x00041012: 0c f0 5e 60: ldaw (lru6)     r1, dp[0x31e]
             0x00041016: ff a6:       mkmsk (rus)     r11, 0x7
             0x00041018: 3c 3a:       and (3r)        r11, r11, r0
             0x0004101a: a7 fc ec 07: stw (l3r)       r2, r1[r11]
             0x0004101e: c0 77:       retsp (u6)      0x0

<XUD_SetStallByAddr_OUT>:
             0x00041020: 0c f0 6e 60: ldaw (lru6)     r1, dp[0x32e]
             0x00041024: 24 f8 ec 07: stw (l3r)       r2, r1[r0]
             0x00041028: c0 77:       retsp (u6)      0x0
             0x0004102a: 00 00:       stw (2rus)      r0, r0[0x0]

<XUD_ClearStallByAddr>:
             0x0004102c: 00 f0 40 77: entsp (lu6)     0x0
             0x00041030: 01 f0 9a 68: ldc (lru6)      r2, 0x5a
             0x00041034: 02 f0 c0 6a: ldc (lru6)      r11, 0x80
             0x00041038: 3c 3a:       and (3r)        r11, r11, r0
             0x0004103a: c7 7a:       bf (ru6)        r11, 0x7 <XUD_ClearStallByAddr_OUT>
             0x0004103c: 0c f0 5e 60: ldaw (lru6)     r1, dp[0x31e]
             0x00041040: ff a6:       mkmsk (rus)     r11, 0x7
             0x00041042: 3c 3a:       and (3r)        r11, r11, r0
             0x00041044: a7 fc ec 07: stw (l3r)       r2, r1[r11]
             0x00041048: c0 77:       retsp (u6)      0x0

<XUD_ClearStallByAddr_OUT>:
             0x0004104a: 0c f0 6e 60: ldaw (lru6)     r1, dp[0x32e]
             0x0004104e: 24 f8 ec 07: stw (l3r)       r2, r1[r0]
             0x00041052: c0 77:       retsp (u6)      0x0

<XUD_ResetEpStateByAddr>:
             0x00041054: 00 f0 40 77: entsp (lu6)     0x0
             0x00041058: 02 f0 40 68: ldc (lru6)      r1, 0x80
             0x0004105c: 21 38:       and (3r)        r2, r0, r1
             0x0004105e: 83 78:       bf (ru6)        r2, 0x3 <XUD_ResetEpStateByAddr_OUT>
             0x00041060: 03 f0 43 68: ldc (lru6)      r1, 0xc3
             0x00041064: 01 73:       bu (u6)         0x1 <XUD_ResetEpStateByAddr_>

<XUD_ResetEpStateByAddr_OUT>:
             0x00041066: 43 68:       ldc (ru6)       r1, 0x3

<XUD_ResetEpStateByAddr_>:
             0x00041068: 93 47:       zext (rus)      r0, 0x7
             0x0004106a: 82 78:       bf (ru6)        r2, 0x2 <NoOffset>
             0x0004106c: 40 fa ec 9f: ldaw (l2rus)    r0, r0[0x4]

<NoOffset>:
             0x00041070: a8 68:       ldc (ru6)       r2, 0x28
             0x00041072: 02 f8 ec 3f: mul (l3r)       r0, r0, r2
             0x00041076: 05 f0 8d 60: ldaw (lru6)     r2, dp[0x14d]
             0x0004107a: 08 10:       add (3r)        r0, r2, r0
             0x0004107c: 50 02:       stw (2rus)      r1, r0[0x4]
             0x0004107e: c0 77:       retsp (u6)      0x0

<XUD_SetTestMode>:
             0x00041080: 00 f0 40 77: entsp (lu6)     0x0
             0x00041084: 02 08:       ldw (2rus)      r0, r0[0x2]
             0x00041086: d1 4e:       outct (rus)     res[r0], 0x1
             0x00041088: d1 ce:       chkct (rus)     res[r0], 0x1
             0x0004108a: c4 ae:       out (r2r)       res[r0], r1
             0x0004108c: d1 4e:       outct (rus)     res[r0], 0x1
             0x0004108e: d1 ce:       chkct (rus)     res[r0], 0x1
             0x00041090: c0 77:       retsp (u6)      0x0
             0x00041092: 00 00:       stw (2rus)      r0, r0[0x0]

<tx_usb_clk.ctor>:
             0x00041094: 00 f0 40 77: entsp (lu6)     0x0
             0x00041098: 00 73:       bu (u6)         0x0 <.label79>
.label79     0x0004109a: 00 73:       bu (u6)         0x0 <.label80>
.label80     0x0004109c: 05 f0 15 58: ldw (lru6)      r0, dp[0x155]
             0x000410a0: 08 e8:       setc (ru6)      res[r0], 0x8
             0x000410a2: 00 73:       bu (u6)         0x0 <.label81>
.label81     0x000410a4: c0 77:       retsp (u6)      0x0
             0x000410a6: 00 00:       stw (2rus)      r0, r0[0x0]

<tx_usb_clk.dtor>:
             0x000410a8: 00 f0 40 77: entsp (lu6)     0x0
             0x000410ac: 00 73:       bu (u6)         0x0 <.label82>
.label82     0x000410ae: 00 73:       bu (u6)         0x0 <.label83>
.label83     0x000410b0: 05 f0 15 58: ldw (lru6)      r0, dp[0x155]
             0x000410b4: 00 e8:       setc (ru6)      res[r0], 0x0
             0x000410b6: 00 73:       bu (u6)         0x0 <.label84>
.label84     0x000410b8: c0 77:       retsp (u6)      0x0
             0x000410ba: 00 00:       stw (2rus)      r0, r0[0x0]

<rx_usb_clk.ctor>:
             0x000410bc: 00 f0 40 77: entsp (lu6)     0x0
             0x000410c0: 00 73:       bu (u6)         0x0 <.label85>
.label85     0x000410c2: 00 73:       bu (u6)         0x0 <.label86>
.label86     0x000410c4: 05 f0 16 58: ldw (lru6)      r0, dp[0x156]
             0x000410c8: 08 e8:       setc (ru6)      res[r0], 0x8
             0x000410ca: 00 73:       bu (u6)         0x0 <.label87>
.label87     0x000410cc: c0 77:       retsp (u6)      0x0
             0x000410ce: 00 00:       stw (2rus)      r0, r0[0x0]

<rx_usb_clk.dtor>:
             0x000410d0: 00 f0 40 77: entsp (lu6)     0x0
             0x000410d4: 00 73:       bu (u6)         0x0 <.label88>
.label88     0x000410d6: 00 73:       bu (u6)         0x0 <.label89>
.label89     0x000410d8: 05 f0 16 58: ldw (lru6)      r0, dp[0x156]
             0x000410dc: 00 e8:       setc (ru6)      res[r0], 0x0
             0x000410de: 00 73:       bu (u6)         0x0 <.label90>
.label90     0x000410e0: c0 77:       retsp (u6)      0x0

<main>:
             0x000410e2: 42 77:       entsp (u6)      0x2
.label91     0x000410e4: c2 86:       getr (rus)      r0, 0x2
             0x000410e6: 02 74:       bt (ru6)        r0, -0x2 <.label91>
             0x000410e8: 7c f0 02 68: ldc (lru6)      r0, 0x1f02
             0x000410ec: 00 f0 df 6e: ldw (lru6)      r11, cp[0x1f]
             0x000410f0: 5c 17:       setd (r2r)      res[r0], r11
             0x000410f2: d1 4e:       outct (rus)     res[r0], 0x1
             0x000410f4: d1 ce:       chkct (rus)     res[r0], 0x1
             0x000410f6: 00 f0 44 58: ldw (lru6)      r1, dp[0x4]
             0x000410fa: 41 e8:       setc (ru6)      res[r1], 0x1
             0x000410fc: c9 b6:       in (2r)         r2, res[r1]
             0x000410fe: ed 07:       clre (0r)       
             0x00041100: 01 f0 e0 6a: ldc (lru6)      r11, 0x60
             0x00041104: ab 14:       add (3r)        r2, r2, r11
             0x00041106: 49 e8:       setc (ru6)      res[r1], 0x9
             0x00041108: d9 16:       setd (r2r)      res[r1], r2
             0x0004110a: 09 d8:       ldap (u10)      r11, 0x9 <.label92>
             0x0004110c: f1 47:       setv (1r)       res[r1], r11
             0x0004110e: 06 d8:       ldap (u10)      r11, 0x6 <.label93>
             0x00041110: f0 47:       setv (1r)       res[r0], r11
             0x00041112: 41 7b:       setsr (u6)      0x1
             0x00041114: f0 07:       eeu (1r)        res[r0]
             0x00041116: ff 17:       nop (0r)        
             0x00041118: f1 07:       eeu (1r)        res[r1]
             0x0004111a: ec 07:       waiteu (0r)     
.label93     0x0004111c: d1 ce:       chkct (rus)     res[r0], 0x1
.label92     0x0004111e: 02 68:       ldc (ru6)       r0, 0x2
             0x00041120: 43 68:       ldc (ru6)       r1, 0x3
             0x00041122: 00 f0 40 7f: ldaw (lu6)      r11, cp[0x0]
.label94     0x00041126: 15 98:       sub (2rus)      r1, r1, 0x1
             0x00041128: ad 49:       ldw (3r)        r2, r11[r1]
             0x0004112a: d8 16:       setd (r2r)      res[r0], r2
             0x0004112c: d0 0e:       outt (r2r)      res[r0], r0
             0x0004112e: d1 4e:       outct (rus)     res[r0], 0x1
             0x00041130: 46 74:       bt (ru6)        r1, -0x6 <.label94>
             0x00041132: 30 68:       ldc (ru6)       r0, 0x30
             0x00041134: 00 f0 5c d0: bl (lu10)       0x5c <delay_ticks>
             0x00041138: 00 f0 43 7f: ldaw (lu6)      r11, cp[0x3]
             0x0004113c: 00 68:       ldc (ru6)       r0, 0x0
             0x0004113e: 60 68:       ldc (ru6)       r1, 0x20
             0x00041140: 02 69:       ldc (ru6)       r4, 0x2
.label97     0x00041142: ac 09:       ldw (2rus)      r2, r11[0x0]
             0x00041144: b8 ac:       shr (2rus)      r3, r2, 0x8
             0x00041146: 38 47:       zext (rus)      r2, 0x8
             0x00041148: 58 30:       eq (3r)         r5, r2, r0
             0x0004114a: 47 79:       bf (ru6)        r5, 0x7 <.label95>
             0x0004114c: a8 a4:       shl (2rus)      r2, r2, 0x8
             0x0004114e: 68 42:       or (3r)         r2, r2, r4
             0x00041150: bc a4:       shl (2rus)      r3, r3, 0x8
             0x00041152: 7c 42:       or (3r)         r3, r3, r4
             0x00041154: de 16:       setd (r2r)      res[r2], r3
             0x00041156: 7c 94:       add (2rus)      r11, r11, 0x4
             0x00041158: 03 73:       bu (u6)         0x3 <.label96>
.label95     0x0004115a: a0 a4:       shl (2rus)      r2, r0, 0x8
             0x0004115c: 68 42:       or (3r)         r2, r2, r4
             0x0004115e: e2 17:       freer (1r)      res[r2]
.label96     0x00041160: 01 90:       add (2rus)      r0, r0, 0x1
             0x00041162: 21 30:       eq (3r)         r2, r0, r1
             0x00041164: 92 7c:       bf (ru6)        r2, -0x12 <.label97>
             0x00041166: 01 f0 df d6: bl (lu10)       -0x6df <__main__main_tile_0>
             0x0004116a: 00 68:       ldc (ru6)       r0, 0x0
             0x0004116c: c2 77:       retsp (u6)      0x2
             0x0004116e: 00 00:       stw (2rus)      r0, r0[0x0]

<_get_cmdline>:
             0x00041170: 00 f0 40 77: entsp (lu6)     0x0
             0x00041174: 24 90:       add (2rus)      r2, r1, 0x0
             0x00041176: 10 90:       add (2rus)      r1, r0, 0x0
             0x00041178: 0d 68:       ldc (ru6)       r0, 0xd
             0x0004117a: 01 f0 4b d9: ldap (lu10)     r11, 0x54b <_DoSyscall>
             0x0004117e: fb 27:       bau (1r)        r11

<__libc_done>:
             0x00041180: 00 f0 42 77: entsp (lu6)     0x2
             0x00041184: 00 68:       ldc (ru6)       r0, 0x0
             0x00041186: 10 90:       add (2rus)      r1, r0, 0x0
             0x00041188: 01 f0 4c d1: bl (lu10)       0x54c <__call_exitprocs>
             0x0004118c: 01 f0 54 d1: bl (lu10)       0x554 <_cleanup>
             0x00041190: 02 f0 9a d3: bl (lu10)       0xb9a <.label98>
             0x00041194: 01 f0 56 d1: bl (lu10)       0x556 <_done>

<_exit_unlocked>:
             0x00041198: 00 f0 44 77: entsp (lu6)     0x4
             0x0004119c: 02 55:       stw (ru6)       r4, sp[0x2]
             0x0004119e: 40 90:       add (2rus)      r4, r0, 0x0
             0x000411a0: 40 68:       ldc (ru6)       r1, 0x0
             0x000411a2: 01 f0 3f d1: bl (lu10)       0x53f <__call_exitprocs>
             0x000411a6: 01 f0 47 d1: bl (lu10)       0x547 <_cleanup>
             0x000411aa: 02 f0 8d d3: bl (lu10)       0xb8d <.label98>
             0x000411ae: c0 90:       add (2rus)      r0, r4, 0x0
             0x000411b0: 01 f0 50 d1: bl (lu10)       0x550 <_exit>

<_DoException>:
             0x000411b4: 00 f0 40 77: entsp (lu6)     0x0
             0x000411b8: ed 07:       clre (0r)       
             0x000411ba: ec 07:       waiteu (0r)     

<memset>:
             0x000411bc: 00 f0 c4 6e: ldw (lru6)      r11, cp[0x4]
             0x000411c0: ff 17:       nop (0r)        
             0x000411c2: fb 27:       bau (1r)        r11

<__init_threadlocal_timer>:
             0x000411c4: 00 f0 40 77: entsp (lu6)     0x0
             0x000411c8: c9 86:       getr (rus)      r2, 0x1
             0x000411ca: 00 f0 44 60: ldaw (lru6)     r1, dp[0x4]
             0x000411ce: ee 17:       get (0r)        r11, id
             0x000411d0: a7 fc ec 07: stw (l3r)       r2, r1[r11]
             0x000411d4: c0 77:       retsp (u6)      0x0
             0x000411d6: 00 00:       stw (2rus)      r0, r0[0x0]

<__free_threadlocal_timer>:
.label197    0x000411d8: 00 f0 40 77: entsp (lu6)     0x0
             0x000411dc: 00 f0 84 60: ldaw (lru6)     r2, dp[0x4]
             0x000411e0: ee 17:       get (0r)        r11, id
             0x000411e2: ab 4c:       ldw (3r)        r2, r2[r11]
             0x000411e4: e2 17:       freer (1r)      res[r2]
             0x000411e6: c0 77:       retsp (u6)      0x0

<memcpy>:
<__memcpy_4>:
             0x000411e8: 00 f0 c5 6e: ldw (lru6)      r11, cp[0x5]
             0x000411ec: ff 17:       nop (0r)        
             0x000411ee: fb 27:       bau (1r)        r11

<delay_ticks>:
             0x000411f0: 00 f0 40 77: entsp (lu6)     0x0
             0x000411f4: e1 8f:       gettime (1r)    r1
             0x000411f6: ee 17:       get (0r)        r11, id
             0x000411f8: 00 f0 84 60: ldaw (lru6)     r2, dp[0x4]
             0x000411fc: ab 4c:       ldw (3r)        r2, r2[r11]
             0x000411fe: 30 f8 ec 97: ashr (l2rus)    r3, r0, 0x20
             0x00041202: c6 78:       bf (ru6)        r3, 0x6 <.label99>
             0x00041204: 00 f0 ea 6c: ldw (lru6)      r3, cp[0x2a]
             0x00041208: 37 10:       add (3r)        r3, r1, r3
             0x0004120a: de 16:       setd (r2r)      res[r2], r3
             0x0004120c: 89 e8:       setc (ru6)      res[r2], 0x9
             0x0004120e: ce b6:       in (2r)         r3, res[r2]
.label99     0x00041210: 04 10:       add (3r)        r0, r1, r0
             0x00041212: d2 16:       setd (r2r)      res[r2], r0
             0x00041214: 89 e8:       setc (ru6)      res[r2], 0x9
             0x00041216: c2 b6:       in (2r)         r0, res[r2]
             0x00041218: c0 77:       retsp (u6)      0x0
             0x0004121a: 00 00:       stw (2rus)      r0, r0[0x0]

<XUD_Manager>:
             0x0004121c: 00 f0 5e 77: entsp (lu6)     0x1e
             0x00041220: 87 fd ec f7: std (l2rus)     r5, r4, sp[0xb]
             0x00041224: 98 55:       stw (ru6)       r6, sp[0x18]
             0x00041226: d9 55:       stw (ru6)       r7, sp[0x19]
             0x00041228: 1a 56:       stw (ru6)       r8, sp[0x1a]
             0x0004122a: 5b 56:       stw (ru6)       r9, sp[0x1b]
             0x0004122c: 9c 56:       stw (ru6)       r10, sp[0x1c]
             0x0004122e: d1 54:       stw (ru6)       r3, sp[0x11]
             0x00041230: 95 54:       stw (ru6)       r2, sp[0x15]
             0x00041232: 52 54:       stw (ru6)       r1, sp[0x12]
             0x00041234: 0e 54:       stw (ru6)       r0, sp[0xe]
             0x00041236: 6a 5c:       ldw (ru6)       r1, sp[0x2a]
             0x00041238: 2b 5c:       ldw (ru6)       r0, sp[0x2b]
             0x0004123a: 54 54:       stw (ru6)       r1, sp[0x14]
             0x0004123c: 13 54:       stw (ru6)       r0, sp[0x13]
             0x0004123e: e8 5c:       ldw (ru6)       r3, sp[0x28]
             0x00041240: a9 5c:       ldw (ru6)       r2, sp[0x29]
             0x00041242: 26 5c:       ldw (ru6)       r0, sp[0x26]
             0x00041244: 67 5c:       ldw (ru6)       r1, sp[0x27]
             0x00041246: 4c 54:       stw (ru6)       r1, sp[0xc]
             0x00041248: e4 5e:       ldw (ru6)       r11, sp[0x24]
             0x0004124a: 65 5c:       ldw (ru6)       r1, sp[0x25]
             0x0004124c: cf 56:       stw (ru6)       r11, sp[0xf]
             0x0004124e: 62 5d:       ldw (ru6)       r5, sp[0x22]
             0x00041250: 63 5c:       ldw (ru6)       r1, sp[0x23]
             0x00041252: 50 54:       stw (ru6)       r1, sp[0x10]
             0x00041254: 60 5c:       ldw (ru6)       r1, sp[0x20]
             0x00041256: 61 5e:       ldw (ru6)       r9, sp[0x21]
             0x00041258: 4d 54:       stw (ru6)       r1, sp[0xd]
             0x0004125a: 05 f0 41 58: ldw (lru6)      r1, dp[0x141]
             0x0004125e: 04 00:       stw (2rus)      r0, r1[0x0]
             0x00041260: 00 68:       ldc (ru6)       r0, 0x0
             0x00041262: 24 6a:       ldc (ru6)       r8, 0x24
             0x00041264: 60 68:       ldc (ru6)       r1, 0x20
             0x00041266: b0 90:       add (2rus)      r11, r0, 0x0
.label100    0x00041268: 05 f0 0e 59: ldw (lru6)      r4, dp[0x14e]
             0x0004126c: 43 fd ec 07: stw (l3r)       r0, r4[r11]
             0x00041270: 3d 92:       add (2rus)      r11, r11, 0x1
             0x00041272: cd 31:       eq (3r)         r4, r11, r1
             0x00041274: 07 7d:       bf (ru6)        r4, -0x7 <.label100>
             0x00041276: 40 68:       ldc (ru6)       r1, 0x0
             0x00041278: 10 69:       ldc (ru6)       r4, 0x10
             0x0004127a: 0a f0 e0 69: ldc (lru6)      r7, 0x2a0
.label101    0x0004127e: 05 f0 cd 5a: ldw (lru6)      r11, dp[0x14d]
             0x00041282: bc 16:       add (3r)        r11, r11, r8
             0x00041284: 7c 9c:       sub (2rus)      r11, r11, 0x4
             0x00041286: 8c 01:       stw (2rus)      r0, r11[0x0]
             0x00041288: 05 f0 cd 5a: ldw (lru6)      r11, dp[0x14d]
             0x0004128c: bc 16:       add (3r)        r11, r11, r8
             0x0004128e: 9c 01:       stw (2rus)      r1, r11[0x0]
             0x00041290: 01 90:       add (2rus)      r0, r0, 0x1
             0x00041292: 82 fe ec 9f: ldaw (l2rus)    r8, r8[0xa]
             0x00041296: f0 32:       eq (3r)         r11, r0, r4
             0x00041298: ce 7e:       bf (ru6)        r11, -0xe <.label101>
             0x0004129a: 02 f0 c0 6a: ldc (lru6)      r11, 0x80
             0x0004129e: 00 68:       ldc (ru6)       r0, 0x0
.label102    0x000412a0: 05 f0 0d 5a: ldw (lru6)      r8, dp[0x14d]
             0x000412a4: e7 44:       or (3r)         r6, r1, r11
             0x000412a6: 43 14:       add (3r)        r8, r8, r7
             0x000412a8: e0 01:       stw (2rus)      r6, r8[0x0]
             0x000412aa: 05 f0 8d 59: ldw (lru6)      r6, dp[0x14d]
             0x000412ae: 6b 13:       add (3r)        r6, r6, r7
             0x000412b0: c9 00:       stw (2rus)      r0, r6[0x1]
             0x000412b2: 15 90:       add (2rus)      r1, r1, 0x1
             0x000412b4: be fd ec 9f: ldaw (l2rus)    r7, r7[0xa]
             0x000412b8: a4 32:       eq (3r)         r6, r1, r4
             0x000412ba: 8e 7d:       bf (ru6)        r6, -0xe <.label102>
             0x000412bc: 55 5c:       ldw (ru6)       r1, sp[0x15]
             0x000412be: 11 c0:       lss (3r)        r1, r0, r1
             0x000412c0: 01 f0 4b 78: bf (lru6)       r1, 0x4b <.label103>
             0x000412c4: 54 68:       ldc (ru6)       r1, 0x14
             0x000412c6: 00 f0 22 6d: ldw (lru6)      r4, cp[0x22]
             0x000412ca: 00 f0 ea 6d: ldw (lru6)      r7, cp[0x2a]
             0x000412ce: 52 a7:       mkmsk (rus)     r8, 0x2
.label104    0x000412d0: b3 c8:       lsu (3r)        r11, r0, r3
             0x000412d2: eb 4f:       ecallf (1r)     r11
             0x000412d4: 05 f0 8f 59: ldw (lru6)      r6, dp[0x14f]
             0x000412d8: d2 5e:       ldw (ru6)       r11, sp[0x12]
             0x000412da: 3c 4a:       ldw (3r)        r11, r11[r0]
             0x000412dc: 2c 92:       add (2rus)      r10, r11, 0x0
             0x000412de: 68 f9 ec 07: stw (l3r)       r10, r6[r0]
             0x000412e2: 05 f0 8e 59: ldw (lru6)      r6, dp[0x14e]
             0x000412e6: 28 f9 ec 1f: ldaw (l3r)      r6, r6[r0]
             0x000412ea: 05 f0 8d 5a: ldw (lru6)      r10, dp[0x14d]
             0x000412ee: 29 12:       add (3r)        r10, r10, r1
             0x000412f0: 69 fc ec a7: ldaw (l2rus)    r10, r10[-0x5]
             0x000412f4: e8 01:       stw (2rus)      r6, r10[0x0]
             0x000412f6: ec 91:       add (2rus)      r6, r11, 0x0
             0x000412f8: 05 f0 8d 5a: ldw (lru6)      r10, dp[0x14d]
             0x000412fc: 29 12:       add (3r)        r10, r10, r1
             0x000412fe: 68 fc ec a7: ldaw (l2rus)    r10, r10[-0x4]
             0x00041302: e8 01:       stw (2rus)      r6, r10[0x0]
             0x00041304: 7b ff ec 1f: getd (l2r)      r6, res[r11]
             0x00041308: 05 f0 8d 5a: ldw (lru6)      r10, dp[0x14d]
             0x0004130c: 29 12:       add (3r)        r10, r10, r1
             0x0004130e: 2b fa ec a7: ldaw (l2rus)    r10, r10[-0x3]
             0x00041312: e8 01:       stw (2rus)      r6, r10[0x0]
             0x00041314: 05 f0 8d 59: ldw (lru6)      r6, dp[0x14d]
             0x00041318: e5 fa ec a7: ldaw (l2rus)    r10, r1[-0x5]
             0x0004131c: 2a aa:       shr (2rus)      r10, r10, 0x2
             0x0004131e: aa fd ec 1f: ldaw (l3r)      r6, r6[r10]
             0x00041322: 6b af:       out (r2r)       res[r11], r6
             0x00041324: d4 5e:       ldw (ru6)       r11, sp[0x14]
             0x00041326: 33 cd:       lsu (3r)        r11, r0, r11
             0x00041328: eb 4f:       ecallf (1r)     r11
             0x0004132a: 34 4a:       ldw (3r)        r11, r9[r0]
             0x0004132c: 7c 3c:       and (3r)        r11, r11, r4
             0x0004132e: 34 fa ec 07: stw (l3r)       r11, r9[r0]
             0x00041332: 34 4a:       ldw (3r)        r11, r9[r0]
             0x00041334: 7f 3c:       and (3r)        r11, r11, r7
             0x00041336: 34 fa ec 07: stw (l3r)       r11, r9[r0]
             0x0004133a: 05 f0 8d 59: ldw (lru6)      r6, dp[0x14d]
             0x0004133e: 29 11:       add (3r)        r6, r6, r1
             0x00041340: 78 01:       stw (2rus)      r11, r6[0x0]
             0x00041342: 05 f0 cd 5a: ldw (lru6)      r11, dp[0x14d]
             0x00041346: 3d 12:       add (3r)        r11, r11, r1
             0x00041348: 7c 9c:       sub (2rus)      r11, r11, 0x4
             0x0004134a: 0c 02:       stw (2rus)      r8, r11[0x0]
             0x0004134c: 01 90:       add (2rus)      r0, r0, 0x1
             0x0004134e: 96 fc ec 9f: ldaw (l2rus)    r1, r1[0xa]
             0x00041352: d5 5e:       ldw (ru6)       r11, sp[0x15]
             0x00041354: 33 c5:       lss (3r)        r11, r0, r11
             0x00041356: 01 f0 c5 76: bt (lru6)       r11, -0x45 <.label104>
.label103    0x0004135a: 00 68:       ldc (ru6)       r0, 0x0
             0x0004135c: 5f 5c:       ldw (ru6)       r1, sp[0x1f]
             0x0004135e: 11 c0:       lss (3r)        r1, r0, r1
             0x00041360: 01 f0 53 78: bf (lru6)       r1, 0x53 <.label105>
             0x00041364: 0a f0 d4 68: ldc (lru6)      r3, 0x294
             0x00041368: 01 f0 40 68: ldc (lru6)      r1, 0x40
             0x0004136c: 03 f0 03 6a: ldc (lru6)      r8, 0xc3
             0x00041370: 00 f0 22 6d: ldw (lru6)      r4, cp[0x22]
             0x00041374: 00 f0 ea 6d: ldw (lru6)      r7, cp[0x2a]
.label106    0x00041378: b2 c8:       lsu (3r)        r11, r0, r2
             0x0004137a: eb 4f:       ecallf (1r)     r11
             0x0004137c: 05 f0 8f 59: ldw (lru6)      r6, dp[0x14f]
             0x00041380: d1 5e:       ldw (ru6)       r11, sp[0x11]
             0x00041382: 3c 4a:       ldw (3r)        r11, r11[r0]
             0x00041384: 2c 92:       add (2rus)      r10, r11, 0x0
             0x00041386: 28 f9 ec 1f: ldaw (l3r)      r6, r6[r0]
             0x0004138a: 29 11:       add (3r)        r6, r6, r1
             0x0004138c: 68 01:       stw (2rus)      r10, r6[0x0]
             0x0004138e: 05 f0 8e 59: ldw (lru6)      r6, dp[0x14e]
             0x00041392: e0 fa ec 9f: ldaw (l2rus)    r10, r0[0x4]
             0x00041396: aa fd ec 1f: ldaw (l3r)      r6, r6[r10]
             0x0004139a: 05 f0 8d 5a: ldw (lru6)      r10, dp[0x14d]
             0x0004139e: 2b 12:       add (3r)        r10, r10, r3
             0x000413a0: 69 fc ec a7: ldaw (l2rus)    r10, r10[-0x5]
             0x000413a4: e8 01:       stw (2rus)      r6, r10[0x0]
             0x000413a6: ec 91:       add (2rus)      r6, r11, 0x0
             0x000413a8: 05 f0 8d 5a: ldw (lru6)      r10, dp[0x14d]
             0x000413ac: 2b 12:       add (3r)        r10, r10, r3
             0x000413ae: 68 fc ec a7: ldaw (l2rus)    r10, r10[-0x4]
             0x000413b2: e8 01:       stw (2rus)      r6, r10[0x0]
             0x000413b4: 7b ff ec 1f: getd (l2r)      r6, res[r11]
             0x000413b8: 05 f0 8d 5a: ldw (lru6)      r10, dp[0x14d]
             0x000413bc: 2b 12:       add (3r)        r10, r10, r3
             0x000413be: 2b fa ec a7: ldaw (l2rus)    r10, r10[-0x3]
             0x000413c2: e8 01:       stw (2rus)      r6, r10[0x0]
             0x000413c4: 05 f0 8d 59: ldw (lru6)      r6, dp[0x14d]
             0x000413c8: ed fa ec a7: ldaw (l2rus)    r10, r3[-0x5]
             0x000413cc: 2a aa:       shr (2rus)      r10, r10, 0x2
             0x000413ce: aa fd ec 1f: ldaw (l3r)      r6, r6[r10]
             0x000413d2: 6b af:       out (r2r)       res[r11], r6
             0x000413d4: 05 f0 cd 5a: ldw (lru6)      r11, dp[0x14d]
             0x000413d8: 3f 12:       add (3r)        r11, r11, r3
             0x000413da: 7c 9c:       sub (2rus)      r11, r11, 0x4
             0x000413dc: 0c 02:       stw (2rus)      r8, r11[0x0]
             0x000413de: d3 5e:       ldw (ru6)       r11, sp[0x13]
             0x000413e0: 33 cd:       lsu (3r)        r11, r0, r11
             0x000413e2: eb 4f:       ecallf (1r)     r11
             0x000413e4: 74 49:       ldw (3r)        r11, r5[r0]
             0x000413e6: 7c 3c:       and (3r)        r11, r11, r4
             0x000413e8: 74 f9 ec 07: stw (l3r)       r11, r5[r0]
             0x000413ec: 74 49:       ldw (3r)        r11, r5[r0]
             0x000413ee: 7f 3c:       and (3r)        r11, r11, r7
             0x000413f0: 74 f9 ec 07: stw (l3r)       r11, r5[r0]
             0x000413f4: 05 f0 8d 59: ldw (lru6)      r6, dp[0x14d]
             0x000413f8: 2b 11:       add (3r)        r6, r6, r3
             0x000413fa: 78 01:       stw (2rus)      r11, r6[0x0]
             0x000413fc: be fc ec 9f: ldaw (l2rus)    r3, r3[0xa]
             0x00041400: 01 90:       add (2rus)      r0, r0, 0x1
             0x00041402: df 5e:       ldw (ru6)       r11, sp[0x1f]
             0x00041404: 33 c5:       lss (3r)        r11, r0, r11
             0x00041406: 01 f0 c9 76: bt (lru6)       r11, -0x49 <.label106>
.label105    0x0004140a: 14 5c:       ldw (ru6)       r0, sp[0x14]
             0x0004140c: e0 4f:       ecallf (1r)     r0
             0x0004140e: 84 09:       ldw (2rus)      r0, r9[0x0]
             0x00041410: 03 b0:       eq (2rus)       r0, r0, 0x3
             0x00041412: d0 5e:       ldw (ru6)       r11, sp[0x10]
             0x00041414: 4f 5c:       ldw (ru6)       r1, sp[0xf]
             0x00041416: 02 78:       bf (ru6)        r0, 0x2 <.label107>
             0x00041418: 13 5c:       ldw (ru6)       r0, sp[0x13]
             0x0004141a: e0 4f:       ecallf (1r)     r0
.label107    0x0004141c: c4 7a:       bf (ru6)        r11, 0x4 <.label108>
             0x0004141e: 43 78:       bf (ru6)        r1, 0x3 <.label108>
             0x00041420: 37 ff ec 0f: setclk (lr2r)   res[r11], r1
             0x00041424: 01 73:       bu (u6)         0x1 <.label109>
.label108    0x00041426: 45 78:       bf (ru6)        r1, 0x5 <.label110>
.label109    0x00041428: 48 e8:       setc (ru6)      res[r1], 0x8
             0x0004142a: d1 a6:       mkmsk (rus)     r0, 0x1
             0x0004142c: d1 fe ec 0f: setclk (lr2r)   res[r1], r0
             0x00041430: 4f e8:       setc (ru6)      res[r1], 0xf
.label110    0x00041432: 05 f0 4f 58: ldw (lru6)      r1, dp[0x14f]
             0x00041436: 05 f0 8e 58: ldw (lru6)      r2, dp[0x14e]
             0x0004143a: 14 5c:       ldw (ru6)       r0, sp[0x14]
             0x0004143c: cc 5c:       ldw (ru6)       r3, sp[0xc]
             0x0004143e: 70 fa ec f7: std (l2rus)     r0, r3, sp[0x4]
             0x00041442: 1f 5e:       ldw (ru6)       r8, sp[0x1f]
             0x00041444: 0e fa ec f7: std (l2rus)     r11, r8, sp[0x2]
             0x00041448: 95 5d:       ldw (ru6)       r6, sp[0x15]
             0x0004144a: 19 f9 ec f7: std (l2rus)     r6, r5, sp[0x1]
             0x0004144e: 13 5c:       ldw (ru6)       r0, sp[0x13]
             0x00041450: 0a 54:       stw (ru6)       r0, sp[0xa]
             0x00041452: 03 f8 ec f7: std (l2rus)     r0, r0, sp[0x3]
             0x00041456: 41 56:       stw (ru6)       r9, sp[0x1]
             0x00041458: 0e 5c:       ldw (ru6)       r0, sp[0xe]
             0x0004145a: cd 5c:       ldw (ru6)       r3, sp[0xd]
             0x0004145c: 00 f0 32 d0: bl (lu10)       0x32 <XUD_Manager_loop>
             0x00041460: 80 6a:       ldc (ru6)       r10, 0x0
             0x00041462: d2 5d:       ldw (ru6)       r7, sp[0x12]
             0x00041464: cc 90:       add (2rus)      r0, r7, 0x0
             0x00041466: d8 90:       add (2rus)      r1, r6, 0x0
             0x00041468: a8 91:       add (2rus)      r2, r10, 0x0
             0x0004146a: b4 91:       add (2rus)      r3, r9, 0x0
             0x0004146c: 00 f0 06 d3: bl (lu10)       0x306 <drain>
             0x00041470: 11 5d:       ldw (ru6)       r4, sp[0x11]
             0x00041472: c0 90:       add (2rus)      r0, r4, 0x0
             0x00041474: 90 91:       add (2rus)      r1, r8, 0x0
             0x00041476: a8 91:       add (2rus)      r2, r10, 0x0
             0x00041478: f4 90:       add (2rus)      r3, r5, 0x0
             0x0004147a: 00 f0 ff d2: bl (lu10)       0x2ff <drain>
             0x0004147e: 59 a7:       mkmsk (rus)     r10, 0x1
             0x00041480: cc 90:       add (2rus)      r0, r7, 0x0
             0x00041482: d8 90:       add (2rus)      r1, r6, 0x0
             0x00041484: a8 91:       add (2rus)      r2, r10, 0x0
             0x00041486: b4 91:       add (2rus)      r3, r9, 0x0
             0x00041488: 00 f0 f8 d2: bl (lu10)       0x2f8 <drain>
             0x0004148c: c0 90:       add (2rus)      r0, r4, 0x0
             0x0004148e: 90 91:       add (2rus)      r1, r8, 0x0
             0x00041490: a8 91:       add (2rus)      r2, r10, 0x0
             0x00041492: f4 90:       add (2rus)      r3, r5, 0x0
             0x00041494: 00 f0 f2 d2: bl (lu10)       0x2f2 <drain>
             0x00041498: 82 6a:       ldc (ru6)       r10, 0x2
             0x0004149a: cc 90:       add (2rus)      r0, r7, 0x0
             0x0004149c: d8 90:       add (2rus)      r1, r6, 0x0
             0x0004149e: a8 91:       add (2rus)      r2, r10, 0x0
             0x000414a0: b4 91:       add (2rus)      r3, r9, 0x0
             0x000414a2: 00 f0 eb d2: bl (lu10)       0x2eb <drain>
             0x000414a6: c0 90:       add (2rus)      r0, r4, 0x0
             0x000414a8: 90 91:       add (2rus)      r1, r8, 0x0
             0x000414aa: a8 91:       add (2rus)      r2, r10, 0x0
             0x000414ac: f4 90:       add (2rus)      r3, r5, 0x0
             0x000414ae: 00 f0 e5 d2: bl (lu10)       0x2e5 <drain>
             0x000414b2: 00 68:       ldc (ru6)       r0, 0x0
             0x000414b4: 9c 5e:       ldw (ru6)       r10, sp[0x1c]
             0x000414b6: 1a 5e:       ldw (ru6)       r8, sp[0x1a]
             0x000414b8: 5b 5e:       ldw (ru6)       r9, sp[0x1b]
             0x000414ba: 98 5d:       ldw (ru6)       r6, sp[0x18]
             0x000414bc: d9 5d:       ldw (ru6)       r7, sp[0x19]
             0x000414be: 87 fd ec ef: ldd (l2rus)     r5, r4, sp[0xb]
             0x000414c2: de 77:       retsp (u6)      0x1e

<XUD_Manager_loop>:
             0x000414c4: 00 f0 68 77: entsp (lu6)     0x28
             0x000414c8: 20 55:       stw (ru6)       r4, sp[0x20]
             0x000414ca: 61 55:       stw (ru6)       r5, sp[0x21]
             0x000414cc: a2 55:       stw (ru6)       r6, sp[0x22]
             0x000414ce: e3 55:       stw (ru6)       r7, sp[0x23]
             0x000414d0: 24 56:       stw (ru6)       r8, sp[0x24]
             0x000414d2: 65 56:       stw (ru6)       r9, sp[0x25]
             0x000414d4: a6 56:       stw (ru6)       r10, sp[0x26]
             0x000414d6: d6 54:       stw (ru6)       r3, sp[0x16]
             0x000414d8: 97 54:       stw (ru6)       r2, sp[0x17]
             0x000414da: 44 90:       add (2rus)      r4, r1, 0x0
             0x000414dc: 15 55:       stw (ru6)       r4, sp[0x15]
             0x000414de: a0 90:       add (2rus)      r10, r0, 0x0
             0x000414e0: 30 5c:       ldw (ru6)       r0, sp[0x30]
             0x000414e2: 71 5c:       ldw (ru6)       r1, sp[0x31]
             0x000414e4: 59 54:       stw (ru6)       r1, sp[0x19]
             0x000414e6: 18 54:       stw (ru6)       r0, sp[0x18]
             0x000414e8: 2c 5c:       ldw (ru6)       r0, sp[0x2c]
             0x000414ea: 6d 5c:       ldw (ru6)       r1, sp[0x2d]
             0x000414ec: 53 54:       stw (ru6)       r1, sp[0x13]
             0x000414ee: 1b 54:       stw (ru6)       r0, sp[0x1b]
             0x000414f0: 2a 5c:       ldw (ru6)       r0, sp[0x2a]
             0x000414f2: 6b 5c:       ldw (ru6)       r1, sp[0x2b]
             0x000414f4: 5e 54:       stw (ru6)       r1, sp[0x1e]
             0x000414f6: 1d 54:       stw (ru6)       r0, sp[0x1d]
             0x000414f8: 05 f0 0a 58: ldw (lru6)      r0, dp[0x14a]
             0x000414fc: 10 08:       ldw (2rus)      r1, r0[0x0]
             0x000414fe: 48 e8:       setc (ru6)      res[r1], 0x8
             0x00041500: 80 f0 4f e8: setc (lru6)     res[r1], 0x200f
             0x00041504: e0 68:       ldc (ru6)       r3, 0x20
             0x00041506: dd fe ec 27: settw (lr2r)    res[r1], r3
             0x0004150a: 00 f0 06 68: ldc (lru6)      r0, 0x6
             0x0004150e: d1 fe ec 0f: setclk (lr2r)   res[r1], r0
             0x00041512: 05 f0 04 58: ldw (lru6)      r0, dp[0x144]
             0x00041516: 00 08:       ldw (2rus)      r0, r0[0x0]
             0x00041518: 08 e8:       setc (ru6)      res[r0], 0x8
             0x0004151a: 80 f0 0f e8: setc (lru6)     res[r0], 0x200f
             0x0004151e: dc fe ec 27: settw (lr2r)    res[r0], r3
             0x00041522: 00 f0 86 68: ldc (lru6)      r2, 0x6
             0x00041526: d8 fe ec 0f: setclk (lr2r)   res[r0], r2
             0x0004152a: 05 f0 05 58: ldw (lru6)      r0, dp[0x145]
             0x0004152e: 00 08:       ldw (2rus)      r0, r0[0x0]
             0x00041530: 08 e8:       setc (ru6)      res[r0], 0x8
             0x00041532: 80 f0 0f e8: setc (lru6)     res[r0], 0x200f
             0x00041536: dc fe ec 27: settw (lr2r)    res[r0], r3
             0x0004153a: 00 f0 86 68: ldc (lru6)      r2, 0x6
             0x0004153e: d8 fe ec 0f: setclk (lr2r)   res[r0], r2
             0x00041542: 05 f0 07 58: ldw (lru6)      r0, dp[0x147]
             0x00041546: 00 08:       ldw (2rus)      r0, r0[0x0]
             0x00041548: 08 e8:       setc (ru6)      res[r0], 0x8
             0x0004154a: 00 f0 86 68: ldc (lru6)      r2, 0x6
             0x0004154e: d8 fe ec 0f: setclk (lr2r)   res[r0], r2
             0x00041552: 05 f0 08 58: ldw (lru6)      r0, dp[0x148]
             0x00041556: 00 08:       ldw (2rus)      r0, r0[0x0]
             0x00041558: 08 e8:       setc (ru6)      res[r0], 0x8
             0x0004155a: 00 f0 86 68: ldc (lru6)      r2, 0x6
             0x0004155e: d8 fe ec 0f: setclk (lr2r)   res[r0], r2
             0x00041562: 05 f0 09 58: ldw (lru6)      r0, dp[0x149]
             0x00041566: 00 08:       ldw (2rus)      r0, r0[0x0]
             0x00041568: 08 e8:       setc (ru6)      res[r0], 0x8
             0x0004156a: 00 f0 86 68: ldc (lru6)      r2, 0x6
             0x0004156e: d8 fe ec 0f: setclk (lr2r)   res[r0], r2
             0x00041572: 05 f0 0c 58: ldw (lru6)      r0, dp[0x14c]
             0x00041576: 00 08:       ldw (2rus)      r0, r0[0x0]
             0x00041578: 01 f0 10 d0: bl (lu10)       0x410 <configure_clock_src>
             0x0004157c: 05 f0 0b 58: ldw (lru6)      r0, dp[0x14b]
             0x00041580: 00 08:       ldw (2rus)      r0, r0[0x0]
             0x00041582: 05 f0 4a 58: ldw (lru6)      r1, dp[0x14a]
             0x00041586: 14 08:       ldw (2rus)      r1, r1[0x0]
             0x00041588: 01 f0 08 d0: bl (lu10)       0x408 <configure_clock_src>
             0x0004158c: 05 f0 0a 58: ldw (lru6)      r0, dp[0x14a]
             0x00041590: 00 08:       ldw (2rus)      r0, r0[0x0]
             0x00041592: 80 f1 0f e8: setc (lru6)     res[r0], 0x600f
             0x00041596: 00 f1 0f e8: setc (lru6)     res[r0], 0x400f
             0x0004159a: 05 f0 0c 58: ldw (lru6)      r0, dp[0x14c]
             0x0004159e: 30 08:       ldw (2rus)      r3, r0[0x0]
             0x000415a0: 40 f2 ef e8: setc (lru6)     res[r3], 0x902f
             0x000415a4: 00 f2 cf e8: setc (lru6)     res[r3], 0x800f
             0x000415a8: 05 f0 0b 58: ldw (lru6)      r0, dp[0x14b]
             0x000415ac: 00 08:       ldw (2rus)      r0, r0[0x0]
             0x000415ae: 40 f2 2f e8: setc (lru6)     res[r0], 0x902f
             0x000415b2: 00 f2 2f e8: setc (lru6)     res[r0], 0x802f
             0x000415b6: 05 f0 47 58: ldw (lru6)      r1, dp[0x147]
             0x000415ba: 14 08:       ldw (2rus)      r1, r1[0x0]
             0x000415bc: 80 f1 4f e8: setc (lru6)     res[r1], 0x600f
             0x000415c0: cf e8:       setc (ru6)      res[r3], 0xf
             0x000415c2: 0f e8:       setc (ru6)      res[r0], 0xf
             0x000415c4: 05 f0 04 58: ldw (lru6)      r0, dp[0x144]
             0x000415c8: 00 08:       ldw (2rus)      r0, r0[0x0]
             0x000415ca: 05 f0 43 58: ldw (lru6)      r1, dp[0x143]
             0x000415ce: 14 08:       ldw (2rus)      r1, r1[0x0]
             0x000415d0: 05 f0 82 58: ldw (lru6)      r2, dp[0x142]
             0x000415d4: 28 08:       ldw (2rus)      r2, r2[0x0]
             0x000415d6: 40 6a:       ldc (ru6)       r9, 0x0
             0x000415d8: 41 56:       stw (ru6)       r9, sp[0x1]
             0x000415da: 00 f0 a5 d3: bl (lu10)       0x3a5 <configure_out_port_handshake>
             0x000415de: 05 f0 05 58: ldw (lru6)      r0, dp[0x145]
             0x000415e2: 00 08:       ldw (2rus)      r0, r0[0x0]
             0x000415e4: 05 f0 46 58: ldw (lru6)      r1, dp[0x146]
             0x000415e8: 14 08:       ldw (2rus)      r1, r1[0x0]
             0x000415ea: 05 f0 8b 58: ldw (lru6)      r2, dp[0x14b]
             0x000415ee: 28 08:       ldw (2rus)      r2, r2[0x0]
             0x000415f0: 00 f0 ba d3: bl (lu10)       0x3ba <configure_in_port_strobed_slave>
             0x000415f4: 02 f0 54 d0: bl (lu10)       0x854 <XUD_GetDone>
             0x000415f8: 08 f0 1e 70: bt (lru6)       r0, 0x21e <.label111>
             0x000415fc: ee 17:       get (0r)        r11, id
             0x000415fe: 00 f0 04 60: ldaw (lru6)     r0, dp[0x4]
             0x00041602: 83 4c:       ldw (3r)        r0, r0[r11]
             0x00041604: 1c 54:       stw (ru6)       r0, sp[0x1c]
             0x00041606: 01 f0 40 68: ldc (lru6)      r1, 0x40
             0x0004160a: c1 10:       add (3r)        r0, r4, r1
             0x0004160c: 1a 54:       stw (ru6)       r0, sp[0x1a]
             0x0004160e: 17 5c:       ldw (ru6)       r0, sp[0x17]
             0x00041610: 01 10:       add (3r)        r0, r0, r1
             0x00041612: 14 54:       stw (ru6)       r0, sp[0x14]
             0x00041614: 11 a7:       mkmsk (rus)     r4, 0x1
             0x00041616: 94 69:       ldc (ru6)       r6, 0x14
             0x00041618: df 65:       ldaw (ru6)      r7, sp[0x1f]
.label147    0x0004161a: 02 68:       ldc (ru6)       r0, 0x2
             0x0004161c: 00 f0 ce d3: bl (lu10)       0x3ce <XUD_UIFM_Enable>
             0x00041620: 09 86:       ld16s (3r)      r0, r10[r9]
             0x00041622: 31 47:       zext (rus)      r0, 0x10
             0x00041624: 00 f0 74 d3: bl (lu10)       0x374 <get_tile_id>
             0x00041628: 01 f0 10 6a: ldc (lru6)      r8, 0x50
             0x0004162c: 90 91:       add (2rus)      r1, r8, 0x0
             0x0004162e: 88 68:       ldc (ru6)       r2, 0x8
             0x00041630: 00 f0 1e d3: bl (lu10)       0x31e <write_sswitch_reg>
             0x00041634: 09 86:       ld16s (3r)      r0, r10[r9]
             0x00041636: 31 47:       zext (rus)      r0, 0x10
             0x00041638: d0 90:       add (2rus)      r1, r4, 0x0
             0x0004163a: 01 f0 80 68: ldc (lru6)      r2, 0x40
             0x0004163e: b4 91:       add (2rus)      r3, r9, 0x0
             0x00041640: 00 f0 48 d3: bl (lu10)       0x348 <write_periph_word>
             0x00041644: 09 86:       ld16s (3r)      r0, r10[r9]
             0x00041646: 31 47:       zext (rus)      r0, 0x10
             0x00041648: 00 f0 62 d3: bl (lu10)       0x362 <get_tile_id>
             0x0004164c: 90 91:       add (2rus)      r1, r8, 0x0
             0x0004164e: 8c 68:       ldc (ru6)       r2, 0xc
             0x00041650: 00 f0 0e d3: bl (lu10)       0x30e <write_sswitch_reg>
             0x00041654: 09 86:       ld16s (3r)      r0, r10[r9]
             0x00041656: 31 47:       zext (rus)      r0, 0x10
             0x00041658: d0 90:       add (2rus)      r1, r4, 0x0
             0x0004165a: 90 68:       ldc (ru6)       r2, 0x10
             0x0004165c: b4 91:       add (2rus)      r3, r9, 0x0
             0x0004165e: 00 f0 39 d3: bl (lu10)       0x339 <write_periph_word>
             0x00041662: 05 f0 0a 58: ldw (lru6)      r0, dp[0x14a]
             0x00041666: 00 08:       ldw (2rus)      r0, r0[0x0]
             0x00041668: 10 17:       setd (r2r)      res[r0], r4
             0x0004166a: 11 e8:       setc (ru6)      res[r0], 0x11
             0x0004166c: c4 b6:       in (2r)         r1, res[r0]
             0x0004166e: 54 17:       setd (r2r)      res[r0], r9
             0x00041670: 11 e8:       setc (ru6)      res[r0], 0x11
             0x00041672: c4 b6:       in (2r)         r1, res[r0]
             0x00041674: 10 17:       setd (r2r)      res[r0], r4
             0x00041676: 11 e8:       setc (ru6)      res[r0], 0x11
             0x00041678: c4 b6:       in (2r)         r1, res[r0]
             0x0004167a: 54 17:       setd (r2r)      res[r0], r9
             0x0004167c: 11 e8:       setc (ru6)      res[r0], 0x11
             0x0004167e: c0 b6:       in (2r)         r0, res[r0]
             0x00041680: 09 86:       ld16s (3r)      r0, r10[r9]
             0x00041682: 31 47:       zext (rus)      r0, 0x10
             0x00041684: d0 90:       add (2rus)      r1, r4, 0x0
             0x00041686: 84 68:       ldc (ru6)       r2, 0x4
             0x00041688: 38 90:       add (2rus)      r3, r2, 0x0
             0x0004168a: 00 f0 23 d3: bl (lu10)       0x323 <write_periph_word>
             0x0004168e: 38 73:       bu (u6)         0x38 <.label112>
.label123    0x00041690: 09 86:       ld16s (3r)      r0, r10[r9]
             0x00041692: 31 47:       zext (rus)      r0, 0x10
             0x00041694: d0 90:       add (2rus)      r1, r4, 0x0
             0x00041696: 84 68:       ldc (ru6)       r2, 0x4
             0x00041698: 01 f0 c7 68: ldc (lru6)      r3, 0x47
             0x0004169c: 00 f0 1a d3: bl (lu10)       0x31a <write_periph_word>
             0x000416a0: 09 86:       ld16s (3r)      r0, r10[r9]
             0x000416a2: 31 47:       zext (rus)      r0, 0x10
             0x000416a4: d0 90:       add (2rus)      r1, r4, 0x0
             0x000416a6: a4 68:       ldc (ru6)       r2, 0x24
             0x000416a8: 00 f0 e5 6c: ldw (lru6)      r3, cp[0x25]
             0x000416ac: 00 f0 12 d3: bl (lu10)       0x312 <write_periph_word>
             0x000416b0: 02 f0 40 7b: setsr (lu6)     0x80
             0x000416b4: 05 f0 05 58: ldw (lru6)      r0, dp[0x145]
             0x000416b8: 50 08:       ldw (2rus)      r5, r0[0x0]
             0x000416ba: 05 f0 48 58: ldw (lru6)      r1, dp[0x148]
             0x000416be: 14 08:       ldw (2rus)      r1, r1[0x0]
             0x000416c0: 05 f0 84 58: ldw (lru6)      r2, dp[0x144]
             0x000416c4: 28 08:       ldw (2rus)      r2, r2[0x0]
             0x000416c6: 05 f0 c9 58: ldw (lru6)      r3, dp[0x149]
             0x000416ca: 3c 08:       ldw (2rus)      r3, r3[0x0]
             0x000416cc: 05 f0 c7 5a: ldw (lru6)      r11, dp[0x147]
             0x000416d0: 8c 09:       ldw (2rus)      r0, r11[0x0]
             0x000416d2: 19 5e:       ldw (ru6)       r8, sp[0x19]
             0x000416d4: f2 5e:       ldw (ru6)       r11, sp[0x32]
             0x000416d6: 4d fc ec f7: std (l2rus)     r11, r8, sp[0x5]
             0x000416da: 16 5e:       ldw (ru6)       r8, sp[0x16]
             0x000416dc: de 5e:       ldw (ru6)       r11, sp[0x1e]
             0x000416de: 70 fc ec f7: std (l2rus)     r8, r11, sp[0x4]
             0x000416e2: 17 5e:       ldw (ru6)       r8, sp[0x17]
             0x000416e4: dd 5e:       ldw (ru6)       r11, sp[0x1d]
             0x000416e6: 33 fa ec f7: std (l2rus)     r8, r11, sp[0x3]
             0x000416ea: e9 5e:       ldw (ru6)       r11, sp[0x29]
             0x000416ec: 1e fa ec f7: std (l2rus)     r11, r9, sp[0x2]
             0x000416f0: 15 fa ec f7: std (l2rus)     r9, r9, sp[0x1]
             0x000416f4: 01 54:       stw (ru6)       r0, sp[0x1]
             0x000416f6: c4 90:       add (2rus)      r0, r5, 0x0
             0x000416f8: 01 f0 54 d3: bl (lu10)       0x754 <XUD_LLD_IoLoop> <utmi_io>
             0x000416fc: 02 f0 00 7b: clrsr (lu6)     0x80
.label112    0x00041700: 18 5c:       ldw (ru6)       r0, sp[0x18]
             0x00041702: 01 b0:       eq (2rus)       r0, r0, 0x1
             0x00041704: 01 f0 32 78: bf (lru6)       r0, 0x72 <.label113>
.label119    0x00041708: 09 86:       ld16s (3r)      r0, r10[r9]
             0x0004170a: 31 47:       zext (rus)      r0, 0x10
             0x0004170c: d0 90:       add (2rus)      r1, r4, 0x0
             0x0004170e: e8 90:       add (2rus)      r2, r6, 0x0
             0x00041710: fc 90:       add (2rus)      r3, r7, 0x0
             0x00041712: 00 f0 e9 d2: bl (lu10)       0x2e9 <read_periph_word>
             0x00041716: 4d 8d:       ld8u (3r)       r0, r7[r9]
             0x00041718: 20 6a:       ldc (ru6)       r8, 0x20
             0x0004171a: 80 3c:       and (3r)        r0, r0, r8
             0x0004171c: d0 91:       add (2rus)      r5, r8, 0x0
             0x0004171e: d8 90:       add (2rus)      r1, r6, 0x0
             0x00041720: e8 91:       add (2rus)      r6, r10, 0x0
             0x00041722: 44 90:       add (2rus)      r4, r1, 0x0
             0x00041724: 38 f1 a0 6a: ldc (lru6)      r10, 0x4e20
             0x00041728: 1c 5e:       ldw (ru6)       r8, sp[0x1c]
             0x0004172a: 0f 70:       bt (ru6)        r0, 0xf <.label114>
.label115    0x0004172c: e0 8f:       gettime (1r)    r0
             0x0004172e: 82 14:       add (3r)        r0, r0, r10
             0x00041730: 30 17:       setd (r2r)      res[r8], r0
             0x00041732: 09 ea:       setc (ru6)      res[r8], 0x9
             0x00041734: 20 b7:       in (2r)         r0, res[r8]
             0x00041736: 49 85:       ld16s (3r)      r0, r6[r9]
             0x00041738: 31 47:       zext (rus)      r0, 0x10
             0x0004173a: d5 a6:       mkmsk (rus)     r1, 0x1
             0x0004173c: e0 90:       add (2rus)      r2, r4, 0x0
             0x0004173e: fc 90:       add (2rus)      r3, r7, 0x0
             0x00041740: 00 f0 d2 d2: bl (lu10)       0x2d2 <read_periph_word>
             0x00041744: 4d 8d:       ld8u (3r)       r0, r7[r9]
             0x00041746: 41 3a:       and (3r)        r0, r0, r5
             0x00041748: 0f 7c:       bf (ru6)        r0, -0xf <.label115>
.label114    0x0004174a: 49 85:       ld16s (3r)      r0, r6[r9]
             0x0004174c: 31 47:       zext (rus)      r0, 0x10
             0x0004174e: 15 a7:       mkmsk (rus)     r5, 0x1
             0x00041750: d4 90:       add (2rus)      r1, r5, 0x0
             0x00041752: 8c 68:       ldc (ru6)       r2, 0xc
             0x00041754: de a6:       mkmsk (rus)     r3, 0x2
             0x00041756: 00 f0 bd d2: bl (lu10)       0x2bd <write_periph_word>
             0x0004175a: 49 85:       ld16s (3r)      r0, r6[r9]
             0x0004175c: 68 91:       add (2rus)      r10, r6, 0x0
             0x0004175e: 31 47:       zext (rus)      r0, 0x10
             0x00041760: d4 90:       add (2rus)      r1, r5, 0x0
             0x00041762: a4 68:       ldc (ru6)       r2, 0x24
             0x00041764: 00 f0 e4 6c: ldw (lru6)      r3, cp[0x24]
             0x00041768: 00 f0 b4 d2: bl (lu10)       0x2b4 <write_periph_word>
             0x0004176c: 05 f0 14 58: ldw (lru6)      r0, dp[0x154]
             0x00041770: 00 08:       ldw (2rus)      r0, r0[0x0]
             0x00041772: 13 78:       bf (ru6)        r0, 0x13 <.label116>
             0x00041774: 05 f0 04 58: ldw (lru6)      r0, dp[0x144]
             0x00041778: 00 08:       ldw (2rus)      r0, r0[0x0]
             0x0004177a: 05 f0 47 58: ldw (lru6)      r1, dp[0x147]
             0x0004177e: 14 08:       ldw (2rus)      r1, r1[0x0]
             0x00041780: 05 f0 88 58: ldw (lru6)      r2, dp[0x148]
             0x00041784: 28 08:       ldw (2rus)      r2, r2[0x0]
             0x00041786: 05 f0 c9 58: ldw (lru6)      r3, dp[0x149]
             0x0004178a: 3c 08:       ldw (2rus)      r3, r3[0x0]
             0x0004178c: 00 f0 1c d3: bl (lu10)       0x31c <XUD_Init>
             0x00041790: 80 90:       add (2rus)      r8, r0, 0x0
             0x00041792: 05 f0 14 58: ldw (lru6)      r0, dp[0x154]
             0x00041796: 90 00:       stw (2rus)      r9, r0[0x0]
             0x00041798: 09 73:       bu (u6)         0x9 <.label117>
.label116    0x0004179a: 38 f1 20 68: ldc (lru6)      r0, 0x4e20
             0x0004179e: 00 f0 e5 d3: bl (lu10)       0x3e5 <XUD_Sup_Delay>
             0x000417a2: 05 f0 09 58: ldw (lru6)      r0, dp[0x149]
             0x000417a6: 00 08:       ldw (2rus)      r0, r0[0x0]
             0x000417a8: 01 e8:       setc (ru6)      res[r0], 0x1
             0x000417aa: 40 b7:       in (2r)         r8, res[r0]
.label117    0x000417ac: 20 91:       add (2rus)      r6, r4, 0x0
             0x000417ae: 04 91:       add (2rus)      r4, r5, 0x0
             0x000417b0: 01 f0 25 72: bt (lru6)       r8, 0x65 <.label118>
             0x000417b4: 00 f0 fa d2: bl (lu10)       0x2fa <XUD_UserSuspend>
             0x000417b8: 05 f0 04 58: ldw (lru6)      r0, dp[0x144]
             0x000417bc: 20 08:       ldw (2rus)      r2, r0[0x0]
             0x000417be: 05 f0 07 58: ldw (lru6)      r0, dp[0x147]
             0x000417c2: 30 08:       ldw (2rus)      r3, r0[0x0]
             0x000417c4: 05 f0 08 58: ldw (lru6)      r0, dp[0x148]
             0x000417c8: 10 08:       ldw (2rus)      r1, r0[0x0]
             0x000417ca: 05 f0 09 58: ldw (lru6)      r0, dp[0x149]
             0x000417ce: b0 08:       ldw (2rus)      r11, r0[0x0]
             0x000417d0: 09 86:       ld16s (3r)      r0, r10[r9]
             0x000417d2: 31 47:       zext (rus)      r0, 0x10
             0x000417d4: c2 56:       stw (ru6)       r11, sp[0x2]
             0x000417d6: 41 54:       stw (ru6)       r1, sp[0x1]
             0x000417d8: d0 90:       add (2rus)      r1, r4, 0x0
             0x000417da: 00 f0 51 d3: bl (lu10)       0x351 <XUD_Suspend>
             0x000417de: 80 90:       add (2rus)      r8, r0, 0x0
             0x000417e0: d0 a6:       mkmsk (rus)     r0, 0x20
             0x000417e2: 80 31:       eq (3r)         r0, r8, r0
             0x000417e4: 01 f0 30 74: bt (lru6)       r0, -0x70 <.label119>
             0x000417e8: 01 f0 07 73: bu (lu6)        0x47 <.label120>
.label113    0x000417ec: 09 86:       ld16s (3r)      r0, r10[r9]
             0x000417ee: 31 47:       zext (rus)      r0, 0x10
             0x000417f0: d0 90:       add (2rus)      r1, r4, 0x0
             0x000417f2: 8c 68:       ldc (ru6)       r2, 0xc
             0x000417f4: de a6:       mkmsk (rus)     r3, 0x2
             0x000417f6: 00 f0 6d d2: bl (lu10)       0x26d <write_periph_word>
             0x000417fa: 09 86:       ld16s (3r)      r0, r10[r9]
             0x000417fc: 31 47:       zext (rus)      r0, 0x10
             0x000417fe: d0 90:       add (2rus)      r1, r4, 0x0
             0x00041800: a4 68:       ldc (ru6)       r2, 0x24
             0x00041802: 00 f0 e4 6c: ldw (lru6)      r3, cp[0x24]
             0x00041806: 00 f0 65 d2: bl (lu10)       0x265 <write_periph_word>
             0x0004180a: 05 f0 14 58: ldw (lru6)      r0, dp[0x154]
             0x0004180e: 00 08:       ldw (2rus)      r0, r0[0x0]
             0x00041810: 14 78:       bf (ru6)        r0, 0x14 <.label121>
             0x00041812: 05 f0 04 58: ldw (lru6)      r0, dp[0x144]
             0x00041816: 00 08:       ldw (2rus)      r0, r0[0x0]
             0x00041818: 05 f0 47 58: ldw (lru6)      r1, dp[0x147]
             0x0004181c: 14 08:       ldw (2rus)      r1, r1[0x0]
             0x0004181e: 05 f0 88 58: ldw (lru6)      r2, dp[0x148]
             0x00041822: 28 08:       ldw (2rus)      r2, r2[0x0]
             0x00041824: 05 f0 c9 58: ldw (lru6)      r3, dp[0x149]
             0x00041828: 3c 08:       ldw (2rus)      r3, r3[0x0]
             0x0004182a: 00 f0 cd d2: bl (lu10)       0x2cd <XUD_Init>
             0x0004182e: 80 90:       add (2rus)      r8, r0, 0x0
             0x00041830: 05 f0 14 58: ldw (lru6)      r0, dp[0x154]
             0x00041834: 90 00:       stw (2rus)      r9, r0[0x0]
             0x00041836: 23 72:       bt (ru6)        r8, 0x23 <.label118>
             0x00041838: 0a 73:       bu (u6)         0xa <.label122>
.label121    0x0004183a: 38 f1 20 68: ldc (lru6)      r0, 0x4e20
             0x0004183e: 00 f0 95 d3: bl (lu10)       0x395 <XUD_Sup_Delay>
             0x00041842: 05 f0 09 58: ldw (lru6)      r0, dp[0x149]
             0x00041846: 00 08:       ldw (2rus)      r0, r0[0x0]
             0x00041848: 01 e8:       setc (ru6)      res[r0], 0x1
             0x0004184a: 40 b7:       in (2r)         r8, res[r0]
             0x0004184c: 18 72:       bt (ru6)        r8, 0x18 <.label118>
.label122    0x0004184e: 00 f0 ad d2: bl (lu10)       0x2ad <XUD_UserSuspend>
             0x00041852: 05 f0 04 58: ldw (lru6)      r0, dp[0x144]
             0x00041856: 20 08:       ldw (2rus)      r2, r0[0x0]
             0x00041858: 05 f0 07 58: ldw (lru6)      r0, dp[0x147]
             0x0004185c: 30 08:       ldw (2rus)      r3, r0[0x0]
             0x0004185e: 05 f0 08 58: ldw (lru6)      r0, dp[0x148]
             0x00041862: 10 08:       ldw (2rus)      r1, r0[0x0]
             0x00041864: 05 f0 09 58: ldw (lru6)      r0, dp[0x149]
             0x00041868: b0 08:       ldw (2rus)      r11, r0[0x0]
             0x0004186a: 09 86:       ld16s (3r)      r0, r10[r9]
             0x0004186c: 31 47:       zext (rus)      r0, 0x10
             0x0004186e: c2 56:       stw (ru6)       r11, sp[0x2]
             0x00041870: 41 54:       stw (ru6)       r1, sp[0x1]
             0x00041872: 58 5c:       ldw (ru6)       r1, sp[0x18]
             0x00041874: 00 f0 04 d3: bl (lu10)       0x304 <XUD_Suspend>
             0x00041878: 80 90:       add (2rus)      r8, r0, 0x0
.label120    0x0004187a: 00 f0 9b d2: bl (lu10)       0x29b <XUD_UserResume>
.label118    0x0004187e: 81 b1:       eq (2rus)       r0, r8, 0x1
             0x00041880: 03 f0 3a 7c: bf (lru6)       r0, -0xfa <.label123>
             0x00041884: 05 f0 12 58: ldw (lru6)      r0, dp[0x152]
             0x00041888: 00 08:       ldw (2rus)      r0, r0[0x0]
             0x0004188a: 15 5e:       ldw (ru6)       r8, sp[0x15]
             0x0004188c: 3f 70:       bt (ru6)        r0, 0x3f <.label124>
             0x0004188e: 1e 5c:       ldw (ru6)       r0, sp[0x1e]
             0x00041890: a4 c1:       lss (3r)        r2, r9, r0
             0x00041892: 09 68:       ldc (ru6)       r0, 0x9
             0x00041894: 94 91:       add (2rus)      r1, r9, 0x0
             0x00041896: d7 5e:       ldw (ru6)       r11, sp[0x17]
             0x00041898: 96 78:       bf (ru6)        r2, 0x16 <.label125>
.label127    0x0004189a: 05 f0 91 58: ldw (lru6)      r2, dp[0x151]
             0x0004189e: 29 48:       ldw (3r)        r2, r2[r1]
             0x000418a0: e9 5c:       ldw (ru6)       r3, sp[0x29]
             0x000418a2: 3d 48:       ldw (3r)        r3, r3[r1]
             0x000418a4: 7c b2:       eq (2rus)       r3, r3, 0x4
             0x000418a6: ca 70:       bt (ru6)        r3, 0xa <.label126>
             0x000418a8: 89 78:       bf (ru6)        r2, 0x9 <.label126>
             0x000418aa: 05 f0 8d 58: ldw (lru6)      r2, dp[0x14d]
             0x000418ae: 48 f8 ec 07: stw (l3r)       r4, r2[r0]
             0x000418b2: 1d fa ec 07: stw (l3r)       r9, r11[r1]
             0x000418b6: a1 49:       ldw (3r)        r2, r8[r1]
             0x000418b8: c8 68:       ldc (ru6)       r3, 0x8
             0x000418ba: cb 4e:       outct (2r)      res[r2], r3
.label126    0x000418bc: 15 90:       add (2rus)      r1, r1, 0x1
             0x000418be: 82 94:       add (2rus)      r0, r0, 0xa
             0x000418c0: 9e 5c:       ldw (ru6)       r2, sp[0x1e]
             0x000418c2: 29 30:       eq (3r)         r2, r2, r1
             0x000418c4: 96 7c:       bf (ru6)        r2, -0x16 <.label127>
.label125    0x000418c6: 1b 5c:       ldw (ru6)       r0, sp[0x1b]
             0x000418c8: a4 c1:       lss (3r)        r2, r9, r0
             0x000418ca: 02 f0 29 68: ldc (lru6)      r0, 0xa9
             0x000418ce: 94 91:       add (2rus)      r1, r9, 0x0
             0x000418d0: d4 5c:       ldw (ru6)       r3, sp[0x14]
             0x000418d2: 97 78:       bf (ru6)        r2, 0x17 <.label128>
.label130    0x000418d4: 9d 5c:       ldw (ru6)       r2, sp[0x1d]
             0x000418d6: 29 48:       ldw (3r)        r2, r2[r1]
             0x000418d8: 68 b2:       eq (2rus)       r2, r2, 0x4
             0x000418da: 8e 70:       bt (ru6)        r2, 0xe <.label129>
             0x000418dc: 05 f0 90 58: ldw (lru6)      r2, dp[0x150]
             0x000418e0: 29 48:       ldw (3r)        r2, r2[r1]
             0x000418e2: 8a 78:       bf (ru6)        r2, 0xa <.label129>
             0x000418e4: 05 f0 8d 58: ldw (lru6)      r2, dp[0x14d]
             0x000418e8: 48 f8 ec 07: stw (l3r)       r4, r2[r0]
             0x000418ec: 9d f8 ec 07: stw (l3r)       r9, r3[r1]
             0x000418f0: 9a 5c:       ldw (ru6)       r2, sp[0x1a]
             0x000418f2: 29 48:       ldw (3r)        r2, r2[r1]
             0x000418f4: c8 6a:       ldc (ru6)       r11, 0x8
             0x000418f6: 2b 4f:       outct (2r)      res[r2], r11
.label129    0x000418f8: 15 90:       add (2rus)      r1, r1, 0x1
             0x000418fa: 82 94:       add (2rus)      r0, r0, 0xa
             0x000418fc: 9b 5c:       ldw (ru6)       r2, sp[0x1b]
             0x000418fe: 29 30:       eq (3r)         r2, r2, r1
             0x00041900: 97 7c:       bf (ru6)        r2, -0x17 <.label130>
.label128    0x00041902: 01 f0 cd d2: bl (lu10)       0x6cd <XUD_GetDone>
             0x00041906: 05 f0 12 58: ldw (lru6)      r0, dp[0x152]
             0x0004190a: 40 00:       stw (2rus)      r4, r0[0x0]
.label124    0x0004190c: 01 f0 c8 d2: bl (lu10)       0x6c8 <XUD_GetDone>
             0x00041910: 02 f0 0b 70: bt (lru6)       r0, 0x8b <.label131>
             0x00041914: 1e 5c:       ldw (ru6)       r0, sp[0x1e]
             0x00041916: a4 c1:       lss (3r)        r2, r9, r0
             0x00041918: 50 68:       ldc (ru6)       r1, 0x10
             0x0004191a: de a6:       mkmsk (rus)     r3, 0x2
             0x0004191c: 88 78:       bf (ru6)        r2, 0x8 <.label132>
.label133    0x0004191e: 05 f0 8d 58: ldw (lru6)      r2, dp[0x14d]
             0x00041922: 29 10:       add (3r)        r2, r2, r1
             0x00041924: 38 00:       stw (2rus)      r3, r2[0x0]
             0x00041926: 96 fc ec 9f: ldaw (l2rus)    r1, r1[0xa]
             0x0004192a: 01 98:       sub (2rus)      r0, r0, 0x1
             0x0004192c: 08 74:       bt (ru6)        r0, -0x8 <.label133>
.label132    0x0004192e: 1b 5c:       ldw (ru6)       r0, sp[0x1b]
             0x00041930: a4 c1:       lss (3r)        r2, r9, r0
             0x00041932: 0a f0 50 68: ldc (lru6)      r1, 0x290
             0x00041936: 03 f0 c3 68: ldc (lru6)      r3, 0xc3
             0x0004193a: 88 78:       bf (ru6)        r2, 0x8 <.label134>
.label135    0x0004193c: 05 f0 8d 58: ldw (lru6)      r2, dp[0x14d]
             0x00041940: 29 10:       add (3r)        r2, r2, r1
             0x00041942: 38 00:       stw (2rus)      r3, r2[0x0]
             0x00041944: 96 fc ec 9f: ldaw (l2rus)    r1, r1[0xa]
             0x00041948: 01 98:       sub (2rus)      r0, r0, 0x1
             0x0004194a: 08 74:       bt (ru6)        r0, -0x8 <.label135>
.label134    0x0004194c: 09 86:       ld16s (3r)      r0, r10[r9]
             0x0004194e: 31 47:       zext (rus)      r0, 0x10
             0x00041950: d0 90:       add (2rus)      r1, r4, 0x0
             0x00041952: 88 68:       ldc (ru6)       r2, 0x8
             0x00041954: b4 91:       add (2rus)      r3, r9, 0x0
             0x00041956: 00 f0 bd d1: bl (lu10)       0x1bd <write_periph_word>
             0x0004195a: 05 f0 01 58: ldw (lru6)      r0, dp[0x141]
             0x0004195e: 00 08:       ldw (2rus)      r0, r0[0x0]
             0x00041960: 02 b0:       eq (2rus)       r0, r0, 0x2
             0x00041962: 1a 78:       bf (ru6)        r0, 0x1a <.label136>
             0x00041964: 05 f0 04 58: ldw (lru6)      r0, dp[0x144]
             0x00041968: 20 08:       ldw (2rus)      r2, r0[0x0]
             0x0004196a: 05 f0 07 58: ldw (lru6)      r0, dp[0x147]
             0x0004196e: 30 08:       ldw (2rus)      r3, r0[0x0]
             0x00041970: 05 f0 08 58: ldw (lru6)      r0, dp[0x148]
             0x00041974: 10 08:       ldw (2rus)      r1, r0[0x0]
             0x00041976: 05 f0 09 58: ldw (lru6)      r0, dp[0x149]
             0x0004197a: b0 08:       ldw (2rus)      r11, r0[0x0]
             0x0004197c: 09 86:       ld16s (3r)      r0, r10[r9]
             0x0004197e: 31 47:       zext (rus)      r0, 0x10
             0x00041980: c2 56:       stw (ru6)       r11, sp[0x2]
             0x00041982: 41 54:       stw (ru6)       r1, sp[0x1]
             0x00041984: 58 5c:       ldw (ru6)       r1, sp[0x18]
             0x00041986: 01 f0 91 d2: bl (lu10)       0x691 <XUD_DeviceAttachHS>
             0x0004198a: d4 a6:       mkmsk (rus)     r1, 0x20
             0x0004198c: 11 30:       eq (3r)         r1, r0, r1
             0x0004198e: 4c 78:       bf (ru6)        r1, 0xc <.label137>
             0x00041990: 00 f0 0c d2: bl (lu10)       0x20c <XUD_UserSuspend>
             0x00041994: 05 f0 0c 77: bu (lu6)        -0x14c <.label112>
.label136    0x00041998: 0c f0 3f 51: stw (lru6)      r4, dp[0x33f]
             0x0004199c: 4e f0 08 68: ldc (lru6)      r0, 0x1388
             0x000419a0: 0d f0 01 50: stw (lru6)      r0, dp[0x341]
             0x000419a4: d9 5e:       ldw (ru6)       r11, sp[0x19]
             0x000419a6: 10 73:       bu (u6)         0x10 <.label138>
.label137    0x000419a8: d9 5e:       ldw (ru6)       r11, sp[0x19]
             0x000419aa: 07 70:       bt (ru6)        r0, 0x7 <.label139>
             0x000419ac: 0c f0 3f 51: stw (lru6)      r4, dp[0x33f]
             0x000419b0: 4e f0 08 68: ldc (lru6)      r0, 0x1388
             0x000419b4: 0d f0 01 50: stw (lru6)      r0, dp[0x341]
             0x000419b8: 07 73:       bu (u6)         0x7 <.label138>
.label139    0x000419ba: 02 68:       ldc (ru6)       r0, 0x2
             0x000419bc: 0c f0 3f 50: stw (lru6)      r0, dp[0x33f]
             0x000419c0: 02 f0 27 68: ldc (lru6)      r0, 0xa7
             0x000419c4: 0d f0 01 50: stw (lru6)      r0, dp[0x341]
.label138    0x000419c8: 0c f0 3f 58: ldw (lru6)      r0, dp[0x33f]
             0x000419cc: 5e 5c:       ldw (ru6)       r1, sp[0x1e]
             0x000419ce: 54 c2:       lss (3r)        r1, r1, r4
             0x000419d0: 51 70:       bt (ru6)        r1, 0x11 <.label140>
             0x000419d2: 05 f0 51 58: ldw (lru6)      r1, dp[0x151]
             0x000419d6: a4 91:       add (2rus)      r2, r9, 0x0
.label142    0x000419d8: bb cc:       lsu (3r)        r3, r2, r11
             0x000419da: e3 4f:       ecallf (1r)     r3
             0x000419dc: e9 5c:       ldw (ru6)       r3, sp[0x29]
             0x000419de: 3e 48:       ldw (3r)        r3, r3[r2]
             0x000419e0: 7c b2:       eq (2rus)       r3, r3, 0x4
             0x000419e2: c4 70:       bt (ru6)        r3, 0x4 <.label141>
             0x000419e4: 36 48:       ldw (3r)        r3, r1[r2]
             0x000419e6: c2 78:       bf (ru6)        r3, 0x2 <.label141>
             0x000419e8: b2 49:       ldw (3r)        r3, r8[r2]
             0x000419ea: c3 ae:       out (r2r)       res[r3], r0
.label141    0x000419ec: 29 90:       add (2rus)      r2, r2, 0x1
             0x000419ee: de 5c:       ldw (ru6)       r3, sp[0x1e]
             0x000419f0: 3b c0:       lss (3r)        r3, r2, r3
             0x000419f2: ce 74:       bt (ru6)        r3, -0xe <.label142>
.label140    0x000419f4: 1b 5e:       ldw (ru6)       r8, sp[0x1b]
             0x000419f6: d0 c3:       lss (3r)        r1, r8, r4
             0x000419f8: 52 70:       bt (ru6)        r1, 0x12 <.label143>
             0x000419fa: 05 f0 50 58: ldw (lru6)      r1, dp[0x150]
             0x000419fe: a4 91:       add (2rus)      r2, r9, 0x0
.label145    0x00041a00: f2 5c:       ldw (ru6)       r3, sp[0x32]
             0x00041a02: 3b c8:       lsu (3r)        r3, r2, r3
             0x00041a04: e3 4f:       ecallf (1r)     r3
             0x00041a06: dd 5c:       ldw (ru6)       r3, sp[0x1d]
             0x00041a08: 3e 48:       ldw (3r)        r3, r3[r2]
             0x00041a0a: 7c b2:       eq (2rus)       r3, r3, 0x4
             0x00041a0c: c5 70:       bt (ru6)        r3, 0x5 <.label144>
             0x00041a0e: 36 48:       ldw (3r)        r3, r1[r2]
             0x00041a10: c3 78:       bf (ru6)        r3, 0x3 <.label144>
             0x00041a12: da 5c:       ldw (ru6)       r3, sp[0x1a]
             0x00041a14: 3e 48:       ldw (3r)        r3, r3[r2]
             0x00041a16: c3 ae:       out (r2r)       res[r3], r0
.label144    0x00041a18: 29 90:       add (2rus)      r2, r2, 0x1
             0x00041a1a: b8 c4:       lss (3r)        r3, r2, r8
             0x00041a1c: cf 74:       bt (ru6)        r3, -0xf <.label145>
.label143    0x00041a1e: d9 56:       stw (ru6)       r11, sp[0x19]
             0x00041a20: 05 f0 12 58: ldw (lru6)      r0, dp[0x152]
             0x00041a24: 90 00:       stw (2rus)      r9, r0[0x0]
             0x00041a26: 07 f0 0d 77: bu (lu6)        -0x1cd <.label123>
.label131    0x00041a2a: 13 5c:       ldw (ru6)       r0, sp[0x13]
             0x00041a2c: 01 78:       bf (ru6)        r0, 0x1 <.label146>
             0x00041a2e: 44 af:       out (r2r)       res[r0], r9
.label146    0x00041a30: 01 f0 36 d2: bl (lu10)       0x636 <XUD_GetDone>
             0x00041a34: 08 f0 0f 7c: bf (lru6)       r0, -0x20f <.label147>
.label111    0x00041a38: 05 f0 04 58: ldw (lru6)      r0, dp[0x144]
             0x00041a3c: 00 08:       ldw (2rus)      r0, r0[0x0]
             0x00041a3e: 00 e8:       setc (ru6)      res[r0], 0x0
             0x00041a40: 05 f0 05 58: ldw (lru6)      r0, dp[0x145]
             0x00041a44: 00 08:       ldw (2rus)      r0, r0[0x0]
             0x00041a46: 00 e8:       setc (ru6)      res[r0], 0x0
             0x00041a48: 05 f0 07 58: ldw (lru6)      r0, dp[0x147]
             0x00041a4c: 00 08:       ldw (2rus)      r0, r0[0x0]
             0x00041a4e: 00 e8:       setc (ru6)      res[r0], 0x0
             0x00041a50: 05 f0 08 58: ldw (lru6)      r0, dp[0x148]
             0x00041a54: 00 08:       ldw (2rus)      r0, r0[0x0]
             0x00041a56: 00 e8:       setc (ru6)      res[r0], 0x0
             0x00041a58: 05 f0 09 58: ldw (lru6)      r0, dp[0x149]
             0x00041a5c: 00 08:       ldw (2rus)      r0, r0[0x0]
             0x00041a5e: 00 e8:       setc (ru6)      res[r0], 0x0
             0x00041a60: 05 f0 0a 58: ldw (lru6)      r0, dp[0x14a]
             0x00041a64: 00 08:       ldw (2rus)      r0, r0[0x0]
             0x00041a66: 00 e8:       setc (ru6)      res[r0], 0x0
             0x00041a68: 00 68:       ldc (ru6)       r0, 0x0
             0x00041a6a: a6 5e:       ldw (ru6)       r10, sp[0x26]
             0x00041a6c: 24 5e:       ldw (ru6)       r8, sp[0x24]
             0x00041a6e: 65 5e:       ldw (ru6)       r9, sp[0x25]
             0x00041a70: a2 5d:       ldw (ru6)       r6, sp[0x22]
             0x00041a72: e3 5d:       ldw (ru6)       r7, sp[0x23]
             0x00041a74: 20 5d:       ldw (ru6)       r4, sp[0x20]
             0x00041a76: 61 5d:       ldw (ru6)       r5, sp[0x21]
             0x00041a78: e8 77:       retsp (u6)      0x28
             0x00041a7a: 00 00:       stw (2rus)      r0, r0[0x0]

<drain>:
             0x00041a7c: 00 f0 40 77: entsp (lu6)     0x0
             0x00041a80: 82 77:       extsp (u6)      0x2
             0x00041a82: 04 f9 ec f7: std (l2rus)     r5, r4, sp[0x0]
             0x00041a86: 5d a7:       mkmsk (rus)     r11, 0x1
             0x00041a88: 37 c5:       lss (3r)        r11, r1, r11
             0x00041a8a: df 72:       bt (ru6)        r11, 0x1f <.label148>
             0x00041a8c: 95 78:       bf (ru6)        r2, 0x15 <.label149>
             0x00041a8e: c0 6a:       ldc (ru6)       r11, 0x0
.label153    0x00041a90: cf 4c:       ldw (3r)        r4, r3[r11]
             0x00041a92: 40 b3:       eq (2rus)       r4, r4, 0x4
             0x00041a94: 0d 71:       bt (ru6)        r4, 0xd <.label150>
             0x00041a96: 4a b0:       eq (2rus)       r4, r2, 0x2
             0x00041a98: 03 79:       bf (ru6)        r4, 0x3 <.label151>
             0x00041a9a: c3 4c:       ldw (3r)        r4, r0[r11]
             0x00041a9c: 11 cf:       chkct (rus)     res[r4], 0x1
             0x00041a9e: 08 73:       bu (u6)         0x8 <.label150>
.label151    0x00041aa0: 49 b0:       eq (2rus)       r4, r2, 0x1
             0x00041aa2: 06 79:       bf (ru6)        r4, 0x6 <.label150>
             0x00041aa4: c3 4c:       ldw (3r)        r4, r0[r11]
             0x00041aa6: d4 bf:       testct (2r)     r5, res[r4]
             0x00041aa8: 43 71:       bt (ru6)        r5, 0x3 <.label150>
.label152    0x00041aaa: d4 8f:       int (2r)        r5, res[r4]
             0x00041aac: d4 bf:       testct (2r)     r5, res[r4]
             0x00041aae: 43 7d:       bf (ru6)        r5, -0x3 <.label152>
.label150    0x00041ab0: 3d 92:       add (2rus)      r11, r11, 0x1
             0x00041ab2: cd c1:       lss (3r)        r4, r11, r1
             0x00041ab4: 13 75:       bt (ru6)        r4, -0x13 <.label153>
             0x00041ab6: 09 73:       bu (u6)         0x9 <.label148>
.label149    0x00041ab8: 2c 08:       ldw (2rus)      r2, r3[0x0]
             0x00041aba: 68 b2:       eq (2rus)       r2, r2, 0x4
             0x00041abc: 82 70:       bt (ru6)        r2, 0x2 <.label154>
             0x00041abe: 20 08:       ldw (2rus)      r2, r0[0x0]
             0x00041ac0: d9 4e:       outct (rus)     res[r2], 0x1
.label154    0x00041ac2: 15 98:       sub (2rus)      r1, r1, 0x1
             0x00041ac4: 40 92:       add (2rus)      r0, r0, 0x4
             0x00041ac6: 7c 92:       add (2rus)      r3, r3, 0x4
             0x00041ac8: 49 74:       bt (ru6)        r1, -0x9 <.label149>
.label148    0x00041aca: 04 f9 ec ef: ldd (l2rus)     r5, r4, sp[0x0]
             0x00041ace: 82 67:       ldaw (ru6)      sp, sp[0x2]
             0x00041ad0: c0 77:       retsp (u6)      0x0
             0x00041ad2: 00 00:       stw (2rus)      r0, r0[0x0]

<ERR_BadCrc>:
             0x00041ad4: 00 f0 40 77: entsp (lu6)     0x0
.label155    0x00041ad8: 01 77:       bu (u6)         -0x1 <.label155>
             0x00041ada: 00 00:       stw (2rus)      r0, r0[0x0]

<ERR_EndIn4>:
             0x00041adc: 00 f0 40 77: entsp (lu6)     0x0
             0x00041ae0: c0 77:       retsp (u6)      0x0
             0x00041ae2: 00 00:       stw (2rus)      r0, r0[0x0]

<ERR_EndIn5>:
             0x00041ae4: 00 f0 40 77: entsp (lu6)     0x0
             0x00041ae8: c0 77:       retsp (u6)      0x0
             0x00041aea: 00 00:       stw (2rus)      r0, r0[0x0]

<__start_other_cores>:
             0x00041aec: 00 f0 44 77: entsp (lu6)     0x4
             0x00041af0: 01 55:       stw (ru6)       r4, sp[0x1]
             0x00041af2: 42 55:       stw (ru6)       r5, sp[0x2]
             0x00041af4: ed 07:       clre (0r)       
             0x00041af6: 07 87:       getr (rus)      r5, 0x3
             0x00041af8: 44 08:       ldw (2rus)      r4, r1[0x0]
             0x00041afa: 80 64:       ldaw (ru6)      r2, sp[0x0]
.label156    0x00041afc: 01 f0 74 da: ldap (lu10)     r11, 0x674 <__start_core>
             0x00041b00: 9d 07:       getst (2r)      r3, res[r5]
             0x00041b02: 5f ff ec 07: init (l2r)      t[r3]:pc, r11
             0x00041b06: 03 f8 ec b7: set (l3r)       t[r3]:r0, r0
             0x00041b0a: d3 f8 ec b7: set (l3r)       t[r3]:r1, r4
             0x00041b0e: 45 08:       ldw (2rus)      r4, r1[0x1]
             0x00041b10: 01 91:       add (2rus)      r4, r4, 0x1
             0x00041b12: c1 6a:       ldc (ru6)       r11, 0x1
             0x00041b14: f3 3d:       and (3r)        r11, r4, r11
             0x00041b16: 83 15:       add (3r)        r4, r4, r11
             0x00041b18: 02 a1:       shl (2rus)      r4, r4, 0x2
             0x00041b1a: 68 1a:       sub (3r)        r2, r2, r4
             0x00041b1c: cb fe ec 07: init (l2r)      t[r3]:sp, r2
             0x00041b20: 94 94:       add (2rus)      r1, r1, 0x8
             0x00041b22: 44 08:       ldw (2rus)      r4, r1[0x0]
             0x00041b24: 15 75:       bt (ru6)        r4, -0x15 <.label156>
             0x00041b26: f5 1f:       msync (1r)      res[r5]
             0x00041b28: b5 08:       ldw (2rus)      r11, r1[0x1]
             0x00041b2a: eb 27:       bla (1r)        r11
             0x00041b2c: f5 17:       mjoin (1r)      res[r5]
             0x00041b2e: e5 17:       freer (1r)      res[r5]
             0x00041b30: 01 5d:       ldw (ru6)       r4, sp[0x1]
             0x00041b32: 42 5d:       ldw (ru6)       r5, sp[0x2]
             0x00041b34: c4 77:       retsp (u6)      0x4
             0x00041b36: 00 00:       stw (2rus)      r0, r0[0x0]

<_safe_strlen>:
             0x00041b38: 00 f0 44 77: entsp (lu6)     0x4
             0x00041b3c: 02 55:       stw (ru6)       r4, sp[0x2]
             0x00041b3e: 44 90:       add (2rus)      r4, r1, 0x0
             0x00041b40: 01 f0 5e d2: bl (lu10)       0x65e <strnlen>
             0x00041b44: 50 32:       eq (3r)         r1, r0, r4
             0x00041b46: f1 4f:       ecallt (1r)     r1
             0x00041b48: 02 5d:       ldw (ru6)       r4, sp[0x2]
             0x00041b4a: c4 77:       retsp (u6)      0x4

<XUD_SetDevAddr>:
             0x00041b4c: 00 f0 42 77: entsp (lu6)     0x2
             0x00041b50: 34 90:       add (2rus)      r3, r1, 0x0
             0x00041b52: d5 a6:       mkmsk (rus)     r1, 0x1
             0x00041b54: 88 68:       ldc (ru6)       r2, 0x8
             0x00041b56: 00 f0 bd d0: bl (lu10)       0xbd <write_periph_word>
             0x00041b5a: 00 68:       ldc (ru6)       r0, 0x0
             0x00041b5c: c2 77:       retsp (u6)      0x2
             0x00041b5e: 00 00:       stw (2rus)      r0, r0[0x0]

<write_periph_32>:
             0x00041b60: 00 f0 40 77: entsp (lu6)     0x0
             0x00041b64: c1 6a:       ldc (ru6)       r11, 0x1
             0x00041b66: 00 f0 01 73: bu (lu6)        0x1 <write_periph_32_aux>
             0x00041b6a: 00 00:       stw (2rus)      r0, r0[0x0]

<write_periph_32_aux>:
             0x00041b6c: 00 f0 44 77: entsp (lu6)     0x4
             0x00041b70: 03 55:       stw (ru6)       r4, sp[0x3]
             0x00041b72: 00 f0 21 6d: ldw (lru6)      r4, cp[0x21]
             0x00041b76: c0 80:       ld16s (3r)      r0, r4[r0]
             0x00041b78: 31 47:       zext (rus)      r0, 0x10
             0x00041b7a: c4 ac:       shr (2rus)      r4, r1, 0x8
             0x00041b7c: 14 71:       bt (ru6)        r4, 0x14 <write_periph_32_aux_return_0>
             0x00041b7e: c8 ac:       shr (2rus)      r4, r2, 0x8
             0x00041b80: 12 71:       bt (ru6)        r4, 0x12 <write_periph_32_aux_return_0>
             0x00041b82: 8e aa:       shr (2rus)      r4, r3, 0x6
             0x00041b84: 10 71:       bt (ru6)        r4, 0x10 <write_periph_32_aux_return_0>
             0x00041b86: c1 a4:       shl (2rus)      r4, r0, 0x10
             0x00041b88: 84 a4:       shl (2rus)      r0, r1, 0x8
             0x00041b8a: 00 41:       or (3r)         r4, r4, r0
             0x00041b8c: 02 68:       ldc (ru6)       r0, 0x2
             0x00041b8e: 00 41:       or (3r)         r4, r4, r0
             0x00041b90: c2 86:       getr (rus)      r0, 0x2
             0x00041b92: 10 17:       setd (r2r)      res[r0], r4
             0x00041b94: 40 90:       add (2rus)      r4, r0, 0x0
             0x00041b96: b4 90:       add (2rus)      r11, r1, 0x0
             0x00041b98: c5 5e:       ldw (ru6)       r11, sp[0x5]
             0x00041b9a: c1 56:       stw (ru6)       r11, sp[0x1]
             0x00041b9c: 01 f0 3e d2: bl (lu10)       0x63e <_write_periph_32_on_chanend>
             0x00041ba0: e4 17:       freer (1r)      res[r4]
             0x00041ba2: 03 5d:       ldw (ru6)       r4, sp[0x3]
             0x00041ba4: c4 77:       retsp (u6)      0x4

<write_periph_32_aux_return_0>:
             0x00041ba6: 00 68:       ldc (ru6)       r0, 0x0
             0x00041ba8: 00 5d:       ldw (ru6)       r4, sp[0x0]
             0x00041baa: c4 77:       retsp (u6)      0x4

<return_zero>:
             0x00041bac: 00 f0 40 77: entsp (lu6)     0x0
             0x00041bb0: 00 68:       ldc (ru6)       r0, 0x0
             0x00041bb2: c0 77:       retsp (u6)      0x0

<read_periph_32>:
             0x00041bb4: 00 f0 40 77: entsp (lu6)     0x0
             0x00041bb8: 00 f0 46 7f: ldaw (lu6)      r11, cp[0x6]
             0x00041bbc: 8c 81:       ld16s (3r)      r0, r11[r0]
             0x00041bbe: 31 47:       zext (rus)      r0, 0x10
             0x00041bc0: 34 ad:       shr (2rus)      r11, r1, 0x8
             0x00041bc2: 00 f0 cd 76: bt (lru6)       r11, -0xd <return_zero>
             0x00041bc6: 38 ad:       shr (2rus)      r11, r2, 0x8
             0x00041bc8: 00 f0 d0 76: bt (lru6)       r11, -0x10 <return_zero>
             0x00041bcc: fe aa:       shr (2rus)      r11, r3, 0x6
             0x00041bce: 00 f0 d3 76: bt (lru6)       r11, -0x13 <return_zero>
             0x00041bd2: 81 a4:       shl (2rus)      r0, r0, 0x10
             0x00041bd4: 34 a5:       shl (2rus)      r11, r1, 0x8
             0x00041bd6: 83 44:       or (3r)         r0, r0, r11
             0x00041bd8: c2 6a:       ldc (ru6)       r11, 0x2
             0x00041bda: 83 44:       or (3r)         r0, r0, r11
             0x00041bdc: 4e 87:       getr (rus)      r11, 0x2
             0x00041bde: 33 17:       setd (r2r)      res[r11], r0
             0x00041be0: 65 68:       ldc (ru6)       r1, 0x25
             0x00041be2: 4d 4f:       outct (2r)      res[r11], r1
             0x00041be4: 0c ae:       shr (2rus)      r0, r11, 0x8
             0x00041be6: 80 a4:       shl (2rus)      r0, r0, 0x8
             0x00041be8: 02 40:       or (3r)         r0, r0, r2
             0x00041bea: 23 af:       out (r2r)       res[r11], r0
             0x00041bec: 0e a0:       shl (2rus)      r0, r3, 0x2
             0x00041bee: 33 0f:       outt (r2r)      res[r11], r0
             0x00041bf0: 5d 4f:       outct (rus)     res[r11], 0x1
             0x00041bf2: 33 87:       inct (2r)       r0, res[r11]
             0x00041bf4: 03 b0:       eq (2rus)       r0, r0, 0x3
             0x00041bf6: 0b 78:       bf (ru6)        r0, 0xb <read_periph_32_return>
             0x00041bf8: 1c b0:       eq (2rus)       r1, r3, 0x0
             0x00041bfa: 49 70:       bt (ru6)        r1, 0x9 <read_periph_32_return>
             0x00041bfc: 41 5c:       ldw (ru6)       r1, sp[0x1]
             0x00041bfe: 80 68:       ldc (ru6)       r2, 0x0

<read_periph_32_receive_loop>:
             0x00041c00: 23 b7:       in (2r)         r0, res[r11]
             0x00041c02: 06 f8 ec 07: stw (l3r)       r0, r1[r2]
             0x00041c06: 29 90:       add (2rus)      r2, r2, 0x1
             0x00041c08: 0b 30:       eq (3r)         r0, r2, r3
             0x00041c0a: 06 7c:       bf (ru6)        r0, -0x6 <read_periph_32_receive_loop>
             0x00041c0c: 01 68:       ldc (ru6)       r0, 0x1

<read_periph_32_return>:
             0x00041c0e: 5d cf:       chkct (rus)     res[r11], 0x1
             0x00041c10: eb 17:       freer (1r)      res[r11]
             0x00041c12: c0 77:       retsp (u6)      0x0

<_DoSyscall>:
             0x00041c14: 00 f0 40 77: entsp (lu6)     0x0
             0x00041c18: d0 a6:       mkmsk (rus)     r0, 0x20
             0x00041c1a: c0 77:       retsp (u6)      0x0

<__call_exitprocs_impl>:
             0x00041c1c: 00 f0 40 77: entsp (lu6)     0x0
             0x00041c20: c0 77:       retsp (u6)      0x0
             0x00041c22: 00 00:       stw (2rus)      r0, r0[0x0]

<__call_exitprocs>:
             0x00041c24: 00 f0 42 77: entsp (lu6)     0x2
             0x00041c28: 00 f0 08 d4: bl (lu10)       -0x8 <__call_exitprocs_impl>
             0x00041c2c: c2 77:       retsp (u6)      0x2
             0x00041c2e: 00 00:       stw (2rus)      r0, r0[0x0]

<_cleanup_impl>:
             0x00041c30: 00 f0 40 77: entsp (lu6)     0x0
             0x00041c34: c0 77:       retsp (u6)      0x0
             0x00041c36: 00 00:       stw (2rus)      r0, r0[0x0]

<_cleanup>:
             0x00041c38: 00 f0 42 77: entsp (lu6)     0x2
             0x00041c3c: 00 f0 08 d4: bl (lu10)       -0x8 <_cleanup_impl>
             0x00041c40: c2 77:       retsp (u6)      0x2
             0x00041c42: 00 00:       stw (2rus)      r0, r0[0x0]

<_done>:
             0x00041c44: 00 f0 40 77: entsp (lu6)     0x0
             0x00041c48: 07 68:       ldc (ru6)       r0, 0x7
             0x00041c4a: 00 f0 1d d4: bl (lu10)       -0x1d <_DoSyscall>
             0x00041c4e: ed 07:       clre (0r)       
             0x00041c50: ec 07:       waiteu (0r)     
             0x00041c52: 00 00:       stw (2rus)      r0, r0[0x0]

<_exit>:
             0x00041c54: 00 f0 40 77: entsp (lu6)     0x0
             0x00041c58: 10 90:       add (2rus)      r1, r0, 0x0
             0x00041c5a: 00 68:       ldc (ru6)       r0, 0x0
             0x00041c5c: 00 f0 26 d4: bl (lu10)       -0x26 <_DoSyscall>
             0x00041c60: ed 07:       clre (0r)       
             0x00041c62: ec 07:       waiteu (0r)     

<__alloc_libc_hwlock>:
.label196    0x00041c64: 00 f0 40 77: entsp (lu6)     0x0
             0x00041c68: 81 87:       getr (rus)      r0, 0x5
             0x00041c6a: 0d f0 05 50: stw (lru6)      r0, dp[0x345]
             0x00041c6e: c0 77:       retsp (u6)      0x0

<write_sswitch_reg>:
             0x00041c70: 00 f0 40 77: entsp (lu6)     0x0
             0x00041c74: 0c f3 cc 68: ldc (lru6)      r3, 0xc30c
             0x00041c78: c1 6a:       ldc (ru6)       r11, 0x1
             0x00041c7a: 00 f0 01 73: bu (lu6)        0x1 <write_switch_reg>
             0x00041c7e: 00 00:       stw (2rus)      r0, r0[0x0]

<write_switch_reg>:
             0x00041c80: 00 f0 40 77: entsp (lu6)     0x0
             0x00041c84: 00 55:       stw (ru6)       r4, sp[0x0]
             0x00041c86: c1 ac:       shr (2rus)      r4, r0, 0x10
             0x00041c88: 1e 71:       bt (ru6)        r4, 0x1e <write_switch_reg_return_0>
             0x00041c8a: c5 ac:       shr (2rus)      r4, r1, 0x10
             0x00041c8c: 1c 71:       bt (ru6)        r4, 0x1c <write_switch_reg_return_0>
             0x00041c8e: 81 a4:       shl (2rus)      r0, r0, 0x10
             0x00041c90: 03 40:       or (3r)         r0, r0, r3
             0x00041c92: 02 87:       getr (rus)      r4, 0x2
             0x00041c94: 90 17:       setd (r2r)      res[r4], r0
             0x00041c96: 03 f0 c0 68: ldc (lru6)      r3, 0xc0
             0x00041c9a: 03 4f:       outct (2r)      res[r4], r3
             0x00041c9c: c3 7a:       bf (ru6)        r11, 0x3 <build_return_no_ack>
             0x00041c9e: 40 ad:       shr (2rus)      r0, r4, 0x8
             0x00041ca0: 80 a4:       shl (2rus)      r0, r0, 0x8
             0x00041ca2: 04 73:       bu (u6)         0x4 <write_switch_reg_send>

<build_return_no_ack>:
             0x00041ca4: 80 ac:       shr (2rus)      r0, r0, 0x8
             0x00041ca6: 3c a7:       mkmsk (rus)     r3, 0x8
             0x00041ca8: 03 40:       or (3r)         r0, r0, r3
             0x00041caa: 80 a4:       shl (2rus)      r0, r0, 0x8

<write_switch_reg_send>:
             0x00041cac: b4 ac:       shr (2rus)      r3, r1, 0x8
             0x00041cae: 03 40:       or (3r)         r0, r0, r3
             0x00041cb0: 80 af:       out (r2r)       res[r4], r0
             0x00041cb2: 94 0f:       outt (r2r)      res[r4], r1
             0x00041cb4: 88 af:       out (r2r)       res[r4], r2
             0x00041cb6: 11 4f:       outct (rus)     res[r4], 0x1
             0x00041cb8: c9 7a:       bf (ru6)        r11, 0x9 <write_switch_reg_free_and_return_1>
             0x00041cba: 90 87:       inct (2r)       r0, res[r4]
             0x00041cbc: 03 b0:       eq (2rus)       r0, r0, 0x3
             0x00041cbe: 11 cf:       chkct (rus)     res[r4], 0x1
             0x00041cc0: e4 17:       freer (1r)      res[r4]
             0x00041cc2: 00 5d:       ldw (ru6)       r4, sp[0x0]
             0x00041cc4: c0 77:       retsp (u6)      0x0

<write_switch_reg_return_0>:
             0x00041cc6: 00 68:       ldc (ru6)       r0, 0x0
             0x00041cc8: 00 5d:       ldw (ru6)       r4, sp[0x0]
             0x00041cca: c0 77:       retsp (u6)      0x0

<write_switch_reg_free_and_return_1>:
             0x00041ccc: e4 17:       freer (1r)      res[r4]
             0x00041cce: 01 68:       ldc (ru6)       r0, 0x1
             0x00041cd0: 00 5d:       ldw (ru6)       r4, sp[0x0]
             0x00041cd2: c0 77:       retsp (u6)      0x0

<write_periph_word>:
             0x00041cd4: 00 f0 44 77: entsp (lu6)     0x4
             0x00041cd8: c3 54:       stw (ru6)       r3, sp[0x3]
             0x00041cda: c3 64:       ldaw (ru6)      r3, sp[0x3]
             0x00041cdc: c1 54:       stw (ru6)       r3, sp[0x1]
             0x00041cde: dd a6:       mkmsk (rus)     r3, 0x1
             0x00041ce0: 00 f0 c2 d4: bl (lu10)       -0xc2 <write_periph_32>
             0x00041ce4: c4 77:       retsp (u6)      0x4
             0x00041ce6: 00 00:       stw (2rus)      r0, r0[0x0]

<read_periph_word>:
             0x00041ce8: 00 f0 46 77: entsp (lu6)     0x6
             0x00041cec: 06 f9 ec f7: std (l2rus)     r5, r4, sp[0x2]
             0x00041cf0: 4c 90:       add (2rus)      r4, r3, 0x0
             0x00041cf2: 02 7f:       getsr (u6)      r11, 0x2
             0x00041cf4: dc 91:       add (2rus)      r5, r11, 0x0
             0x00041cf6: 02 7b:       clrsr (u6)      0x2
             0x00041cf8: c3 64:       ldaw (ru6)      r3, sp[0x3]
             0x00041cfa: c1 54:       stw (ru6)       r3, sp[0x1]
             0x00041cfc: dd a6:       mkmsk (rus)     r3, 0x1
             0x00041cfe: 00 f0 a7 d4: bl (lu10)       -0xa7 <read_periph_32>
             0x00041d02: 41 79:       bf (ru6)        r5, 0x1 <.label157>
             0x00041d04: 42 7b:       setsr (u6)      0x2
.label157    0x00041d06: 43 5c:       ldw (ru6)       r1, sp[0x3]
             0x00041d08: d0 00:       stw (2rus)      r1, r4[0x0]
             0x00041d0a: 06 f9 ec ef: ldd (l2rus)     r5, r4, sp[0x2]
             0x00041d0e: c6 77:       retsp (u6)      0x6

<get_tile_id>:
             0x00041d10: 00 f0 40 77: entsp (lu6)     0x0
             0x00041d14: 00 f0 46 68: ldc (lru6)      r1, 0x6
             0x00041d18: 11 c8:       lsu (3r)        r1, r0, r1
             0x00041d1a: e1 4f:       ecallf (1r)     r1
             0x00041d1c: 00 f0 46 7f: ldaw (lu6)      r11, cp[0x6]
             0x00041d20: 8c 81:       ld16s (3r)      r0, r11[r0]
             0x00041d22: 31 47:       zext (rus)      r0, 0x10
             0x00041d24: c0 77:       retsp (u6)      0x0
             0x00041d26: 00 00:       stw (2rus)      r0, r0[0x0]

<configure_out_port_handshake>:
             0x00041d28: 00 f0 46 77: entsp (lu6)     0x6
             0x00041d2c: 05 f9 ec f7: std (l2rus)     r5, r4, sp[0x1]
             0x00041d30: 2e f9 ec f7: std (l2rus)     r7, r6, sp[0x2]
             0x00041d34: 4c 90:       add (2rus)      r4, r3, 0x0
             0x00041d36: 58 90:       add (2rus)      r5, r2, 0x0
             0x00041d38: 64 90:       add (2rus)      r6, r1, 0x0
             0x00041d3a: 70 90:       add (2rus)      r7, r0, 0x0
             0x00041d3c: 47 5c:       ldw (ru6)       r1, sp[0x7]
             0x00041d3e: 40 f1 c7 e9: setc (lru6)     res[r7], 0x5007
             0x00041d42: 01 f0 9d d1: bl (lu10)       0x59d <__set_port_out>
             0x00041d46: c8 ff ec 2f: setrdy (lr2r)   res[r4], r6
             0x00041d4a: d3 ff ec 0f: setclk (lr2r)   res[r7], r4
             0x00041d4e: c0 f0 d7 e9: setc (lru6)     res[r7], 0x3017
             0x00041d52: d7 e9:       setc (ru6)      res[r7], 0x17
             0x00041d54: cd ff ec 2f: setrdy (lr2r)   res[r5], r7
             0x00041d58: 40 f1 57 e9: setc (lru6)     res[r5], 0x5017
             0x00041d5c: 2e f9 ec ef: ldd (l2rus)     r7, r6, sp[0x2]
             0x00041d60: 05 f9 ec ef: ldd (l2rus)     r5, r4, sp[0x1]
             0x00041d64: c6 77:       retsp (u6)      0x6
             0x00041d66: 00 00:       stw (2rus)      r0, r0[0x0]

<configure_in_port_strobed_slave>:
             0x00041d68: 00 f0 46 77: entsp (lu6)     0x6
             0x00041d6c: 05 f9 ec f7: std (l2rus)     r5, r4, sp[0x1]
             0x00041d70: 84 55:       stw (ru6)       r6, sp[0x4]
             0x00041d72: 48 90:       add (2rus)      r4, r2, 0x0
             0x00041d74: 54 90:       add (2rus)      r5, r1, 0x0
             0x00041d76: 60 90:       add (2rus)      r6, r0, 0x0
             0x00041d78: 40 f1 87 e9: setc (lru6)     res[r6], 0x5007
             0x00041d7c: 01 f0 72 d1: bl (lu10)       0x572 <__set_port_in>
             0x00041d80: c4 ff ec 2f: setrdy (lr2r)   res[r4], r5
             0x00041d84: d2 ff ec 0f: setclk (lr2r)   res[r6], r4
             0x00041d88: c0 f0 8f e9: setc (lru6)     res[r6], 0x300f
             0x00041d8c: 40 f0 8f e9: setc (lru6)     res[r6], 0x100f
             0x00041d90: 97 e9:       setc (ru6)      res[r6], 0x17
             0x00041d92: 84 5d:       ldw (ru6)       r6, sp[0x4]
             0x00041d94: 05 f9 ec ef: ldd (l2rus)     r5, r4, sp[0x1]
             0x00041d98: c6 77:       retsp (u6)      0x6
             0x00041d9a: 00 00:       stw (2rus)      r0, r0[0x0]

<configure_clock_src>:
             0x00041d9c: 00 f0 40 77: entsp (lu6)     0x0
             0x00041da0: d4 fe ec 0f: setclk (lr2r)   res[r0], r1
             0x00041da4: 40 68:       ldc (ru6)       r1, 0x0
             0x00041da6: d4 16:       setd (r2r)      res[r0], r1
             0x00041da8: c0 77:       retsp (u6)      0x0
             0x00041daa: 00 00:       stw (2rus)      r0, r0[0x0]

<XUD_UserSuspend>:
             0x00041dac: 00 f0 40 77: entsp (lu6)     0x0
             0x00041db0: c0 77:       retsp (u6)      0x0
             0x00041db2: 00 00:       stw (2rus)      r0, r0[0x0]

<XUD_UserResume>:
             0x00041db4: 00 f0 40 77: entsp (lu6)     0x0
             0x00041db8: c0 77:       retsp (u6)      0x0
             0x00041dba: 00 00:       stw (2rus)      r0, r0[0x0]

<XUD_UIFM_Enable>:
             0x00041dbc: 08 f0 4b 68: ldc (lru6)      r1, 0x20b
             0x00041dc0: c1 fe ec 1f: set (lr2r)      ps[r1], r0
             0x00041dc4: c0 77:       retsp (u6)      0x0
             0x00041dc6: 00 00:       stw (2rus)      r0, r0[0x0]

<XUD_Init>:
             0x00041dc8: 00 f0 40 77: entsp (lu6)     0x0
             0x00041dcc: 84 77:       extsp (u6)      0x4
             0x00041dce: 04 f9 ec f7: std (l2rus)     r5, r4, sp[0x0]
             0x00041dd2: 82 55:       stw (ru6)       r6, sp[0x2]
             0x00041dd4: ee 17:       get (0r)        r11, id
             0x00041dd6: 00 f0 04 60: ldaw (lru6)     r0, dp[0x4]
             0x00041dda: a3 4c:       ldw (3r)        r2, r0[r11]
             0x00041ddc: d1 e8:       setc (ru6)      res[r3], 0x11
             0x00041dde: 51 e8:       setc (ru6)      res[r1], 0x11
             0x00041de0: ed 07:       clre (0r)       
             0x00041de2: d1 a6:       mkmsk (rus)     r0, 0x1
             0x00041de4: d3 16:       setd (r2r)      res[r3], r0
             0x00041de6: 08 d8:       ldap (u10)      r11, 0x8 <.label158>
             0x00041de8: f3 47:       setv (1r)       res[r3], r11
             0x00041dea: f3 07:       eeu (1r)        res[r3]
             0x00041dec: 00 69:       ldc (ru6)       r4, 0x0
             0x00041dee: 11 17:       setd (r2r)      res[r1], r4
             0x00041df0: 21 d8:       ldap (u10)      r11, 0x21 <.label159>
             0x00041df2: f1 47:       setv (1r)       res[r1], r11
             0x00041df4: f1 07:       eeu (1r)        res[r1]
             0x00041df6: ec 07:       waiteu (0r)     
.label158    0x00041df8: 4f b7:       in (2r)         r11, res[r3]
             0x00041dfa: e6 8f:       gettime (1r)    r6
             0x00041dfc: ed 07:       clre (0r)       
             0x00041dfe: 40 69:       ldc (ru6)       r5, 0x0
             0x00041e00: 17 17:       setd (r2r)      res[r3], r5
             0x00041e02: d1 e8:       setc (ru6)      res[r3], 0x11
             0x00041e04: 0b d8:       ldap (u10)      r11, 0xb <.label160>
             0x00041e06: f3 47:       setv (1r)       res[r3], r11
             0x00041e08: f3 07:       eeu (1r)        res[r3]
             0x00041e0a: 28 f0 e8 6a: ldc (lru6)      r11, 0xa28
             0x00041e0e: fb 15:       add (3r)        r11, r6, r11
             0x00041e10: 5e 17:       setd (r2r)      res[r2], r11
             0x00041e12: 89 e8:       setc (ru6)      res[r2], 0x9
             0x00041e14: 2c d8:       ldap (u10)      r11, 0x2c <.label161>
             0x00041e16: f2 47:       setv (1r)       res[r2], r11
             0x00041e18: f2 07:       eeu (1r)        res[r2]
             0x00041e1a: ec 07:       waiteu (0r)     
.label160    0x00041e1c: 4f b7:       in (2r)         r11, res[r3]
             0x00041e1e: ed 07:       clre (0r)       
             0x00041e20: 5d a7:       mkmsk (rus)     r11, 0x1
             0x00041e22: 5f 17:       setd (r2r)      res[r3], r11
             0x00041e24: 17 dc:       ldap (u10)      r11, -0x17 <.label158>
             0x00041e26: f3 47:       setv (1r)       res[r3], r11
             0x00041e28: f3 07:       eeu (1r)        res[r3]
             0x00041e2a: 15 17:       setd (r2r)      res[r1], r5
             0x00041e2c: 03 d8:       ldap (u10)      r11, 0x3 <.label159>
             0x00041e2e: f1 47:       setv (1r)       res[r1], r11
             0x00041e30: f1 07:       eeu (1r)        res[r1]
             0x00041e32: ec 07:       waiteu (0r)     
.label159    0x00041e34: 4d b7:       in (2r)         r11, res[r1]
             0x00041e36: e5 8f:       gettime (1r)    r5
             0x00041e38: ed 07:       clre (0r)       
             0x00041e3a: d1 16:       setd (r2r)      res[r1], r0
             0x00041e3c: 51 e8:       setc (ru6)      res[r1], 0x11
             0x00041e3e: 0b d8:       ldap (u10)      r11, 0xb <.label162>
             0x00041e40: f1 47:       setv (1r)       res[r1], r11
             0x00041e42: f1 07:       eeu (1r)        res[r1]
             0x00041e44: 00 f0 e8 6e: ldw (lru6)      r11, cp[0x28]
             0x00041e48: f7 15:       add (3r)        r11, r5, r11
             0x00041e4a: 5e 17:       setd (r2r)      res[r2], r11
             0x00041e4c: 89 e8:       setc (ru6)      res[r2], 0x9
             0x00041e4e: 11 d8:       ldap (u10)      r11, 0x11 <.label163>
             0x00041e50: f2 47:       setv (1r)       res[r2], r11
             0x00041e52: f2 07:       eeu (1r)        res[r2]
             0x00041e54: ec 07:       waiteu (0r)     
.label162    0x00041e56: 4d b7:       in (2r)         r11, res[r1]
             0x00041e58: ed 07:       clre (0r)       
             0x00041e5a: d3 16:       setd (r2r)      res[r3], r0
             0x00041e5c: 33 dc:       ldap (u10)      r11, -0x33 <.label158>
             0x00041e5e: f3 47:       setv (1r)       res[r3], r11
             0x00041e60: f3 07:       eeu (1r)        res[r3]
             0x00041e62: c0 6a:       ldc (ru6)       r11, 0x0
             0x00041e64: 5d 17:       setd (r2r)      res[r1], r11
             0x00041e66: 1a dc:       ldap (u10)      r11, -0x1a <.label159>
             0x00041e68: f1 47:       setv (1r)       res[r1], r11
             0x00041e6a: f1 07:       eeu (1r)        res[r1]
             0x00041e6c: ec 07:       waiteu (0r)     
.label161    0x00041e6e: c6 b6:       in (2r)         r1, res[r2]
             0x00041e70: 02 73:       bu (u6)         0x2 <.label164>
.label163    0x00041e72: c2 b6:       in (2r)         r0, res[r2]
             0x00041e74: c0 90:       add (2rus)      r0, r4, 0x0
.label164    0x00041e76: 82 5d:       ldw (ru6)       r6, sp[0x2]
             0x00041e78: 04 f9 ec ef: ldd (l2rus)     r5, r4, sp[0x0]
             0x00041e7c: 84 67:       ldaw (ru6)      sp, sp[0x4]
             0x00041e7e: c0 77:       retsp (u6)      0x0

<XUD_Suspend>:
             0x00041e80: 00 f0 4c 77: entsp (lu6)     0xc
             0x00041e84: 06 f9 ec f7: std (l2rus)     r5, r4, sp[0x2]
             0x00041e88: 2f f9 ec f7: std (l2rus)     r7, r6, sp[0x3]
             0x00041e8c: 44 fc ec f7: std (l2rus)     r9, r8, sp[0x4]
             0x00041e90: 8a 56:       stw (ru6)       r10, sp[0xa]
             0x00041e92: 40 90:       add (2rus)      r4, r0, 0x0
             0x00041e94: ce 5d:       ldw (ru6)       r7, sp[0xe]
             0x00041e96: ee 17:       get (0r)        r11, id
             0x00041e98: 00 f0 04 60: ldaw (lru6)     r0, dp[0x4]
             0x00041e9c: e3 4c:       ldw (3r)        r6, r0[r11]
             0x00041e9e: 85 b0:       eq (2rus)       r8, r1, 0x1
             0x00041ea0: 15 a7:       mkmsk (rus)     r5, 0x1
             0x00041ea2: 42 66:       ldaw (ru6)      r9, sp[0x2]
             0x00041ea4: a0 6a:       ldc (ru6)       r10, 0x20
.label170    0x00041ea6: 0b 7a:       bf (ru6)        r8, 0xb <.label165>
             0x00041ea8: c0 90:       add (2rus)      r0, r4, 0x0
             0x00041eaa: d4 90:       add (2rus)      r1, r5, 0x0
             0x00041eac: 94 68:       ldc (ru6)       r2, 0x14
             0x00041eae: b4 91:       add (2rus)      r3, r9, 0x0
             0x00041eb0: 00 f0 e6 d4: bl (lu10)       -0xe6 <read_periph_word>
             0x00041eb4: 00 68:       ldc (ru6)       r0, 0x0
             0x00041eb6: 84 89:       ld8u (3r)       r0, r9[r0]
             0x00041eb8: 82 3c:       and (3r)        r0, r0, r10
             0x00041eba: 01 f0 05 78: bf (lru6)       r0, 0x45 <.label166>
.label165    0x00041ebe: c0 90:       add (2rus)      r0, r4, 0x0
             0x00041ec0: d4 90:       add (2rus)      r1, r5, 0x0
             0x00041ec2: 9c 68:       ldc (ru6)       r2, 0x1c
             0x00041ec4: c3 64:       ldaw (ru6)      r3, sp[0x3]
             0x00041ec6: 00 f0 f1 d4: bl (lu10)       -0xf1 <read_periph_word>
             0x00041eca: 03 5c:       ldw (ru6)       r0, sp[0x3]
             0x00041ecc: 92 3c:       and (3r)        r1, r0, r10
             0x00041ece: 52 78:       bf (ru6)        r1, 0x12 <.label167>
             0x00041ed0: e1 8f:       gettime (1r)    r1
             0x00041ed2: ed 07:       clre (0r)       
             0x00041ed4: 80 68:       ldc (ru6)       r2, 0x0
             0x00041ed6: 9b 17:       setd (r2r)      res[r7], r2
             0x00041ed8: d1 e9:       setc (ru6)      res[r7], 0x11
             0x00041eda: 0b d8:       ldap (u10)      r11, 0xb <.label168>
             0x00041edc: f7 47:       setv (1r)       res[r7], r11
             0x00041ede: f7 07:       eeu (1r)        res[r7]
             0x00041ee0: 03 f0 ba 68: ldc (lru6)      r2, 0xfa
             0x00041ee4: 16 10:       add (3r)        r1, r1, r2
             0x00041ee6: 96 17:       setd (r2r)      res[r6], r1
             0x00041ee8: 89 e9:       setc (ru6)      res[r6], 0x9
             0x00041eea: 25 d8:       ldap (u10)      r11, 0x25 <.label169>
             0x00041eec: f6 47:       setv (1r)       res[r6], r11
             0x00041eee: f6 07:       eeu (1r)        res[r6]
             0x00041ef0: ec 07:       waiteu (0r)     
.label168    0x00041ef2: 87 b7:       in (2r)         r1, res[r7]
.label167    0x00041ef4: 48 68:       ldc (ru6)       r1, 0x8
             0x00041ef6: 01 38:       and (3r)        r0, r0, r1
             0x00041ef8: 2a 7c:       bf (ru6)        r0, -0x2a <.label170>
             0x00041efa: 15 a7:       mkmsk (rus)     r5, 0x1
             0x00041efc: dc 69:       ldc (ru6)       r7, 0x1c
             0x00041efe: 83 65:       ldaw (ru6)      r6, sp[0x3]
             0x00041f00: 10 6a:       ldc (ru6)       r8, 0x10
.label172    0x00041f02: c0 90:       add (2rus)      r0, r4, 0x0
             0x00041f04: d4 90:       add (2rus)      r1, r5, 0x0
             0x00041f06: ec 90:       add (2rus)      r2, r7, 0x0
             0x00041f08: f8 90:       add (2rus)      r3, r6, 0x0
             0x00041f0a: 00 f0 13 d5: bl (lu10)       -0x113 <read_periph_word>
             0x00041f0e: 03 5c:       ldw (ru6)       r0, sp[0x3]
             0x00041f10: 90 3c:       and (3r)        r1, r0, r8
             0x00041f12: 62 70:       bt (ru6)        r1, 0x22 <.label171>
             0x00041f14: 82 3c:       and (3r)        r0, r0, r10
             0x00041f16: 0b 7c:       bf (ru6)        r0, -0xb <.label172>
             0x00041f18: 0c f0 3f 58: ldw (lru6)      r0, dp[0x33f]
             0x00041f1c: 1d a7:       mkmsk (rus)     r7, 0x1
             0x00041f1e: 1c 6a:       ldc (ru6)       r8, 0x1c
             0x00041f20: 40 69:       ldc (ru6)       r5, 0x0
.label173    0x00041f22: c0 90:       add (2rus)      r0, r4, 0x0
             0x00041f24: dc 90:       add (2rus)      r1, r7, 0x0
             0x00041f26: a0 91:       add (2rus)      r2, r8, 0x0
             0x00041f28: f8 90:       add (2rus)      r3, r6, 0x0
             0x00041f2a: 00 f0 23 d5: bl (lu10)       -0x123 <read_periph_word>
             0x00041f2e: 09 8b:       ld8u (3r)       r0, r6[r5]
             0x00041f30: 82 3c:       and (3r)        r0, r0, r10
             0x00041f32: 09 74:       bt (ru6)        r0, -0x9 <.label173>
             0x00041f34: 12 73:       bu (u6)         0x12 <.label174>
.label169    0x00041f36: 82 b7:       in (2r)         r0, res[r6]
             0x00041f38: e0 8f:       gettime (1r)    r0
             0x00041f3a: 00 f0 66 6c: ldw (lru6)      r1, cp[0x26]
             0x00041f3e: 01 10:       add (3r)        r0, r0, r1
             0x00041f40: 92 17:       setd (r2r)      res[r6], r0
             0x00041f42: 89 e9:       setc (ru6)      res[r6], 0x9
             0x00041f44: 82 b7:       in (2r)         r0, res[r6]
             0x00041f46: 09 73:       bu (u6)         0x9 <.label174>
.label166    0x00041f48: d5 a6:       mkmsk (rus)     r1, 0x1
             0x00041f4a: 8c 68:       ldc (ru6)       r2, 0xc
             0x00041f4c: c4 68:       ldc (ru6)       r3, 0x4
             0x00041f4e: c0 90:       add (2rus)      r0, r4, 0x0
             0x00041f50: 00 f0 40 d5: bl (lu10)       -0x140 <write_periph_word>
             0x00041f54: 14 a7:       mkmsk (rus)     r5, 0x20
             0x00041f56: 01 73:       bu (u6)         0x1 <.label174>
.label171    0x00041f58: 40 69:       ldc (ru6)       r5, 0x0
.label174    0x00041f5a: c4 90:       add (2rus)      r0, r5, 0x0
             0x00041f5c: 8a 5e:       ldw (ru6)       r10, sp[0xa]
             0x00041f5e: 44 fc ec ef: ldd (l2rus)     r9, r8, sp[0x4]
             0x00041f62: 2f f9 ec ef: ldd (l2rus)     r7, r6, sp[0x3]
             0x00041f66: 06 f9 ec ef: ldd (l2rus)     r5, r4, sp[0x2]
             0x00041f6a: cc 77:       retsp (u6)      0xc

<XUD_Sup_Delay>:
             0x00041f6c: 00 f0 40 77: entsp (lu6)     0x0
             0x00041f70: e1 8f:       gettime (1r)    r1
             0x00041f72: 04 10:       add (3r)        r0, r1, r0
             0x00041f74: ee 17:       get (0r)        r11, id
             0x00041f76: 00 f0 44 60: ldaw (lru6)     r1, dp[0x4]
             0x00041f7a: 97 4c:       ldw (3r)        r1, r1[r11]
             0x00041f7c: d1 16:       setd (r2r)      res[r1], r0
             0x00041f7e: 49 e8:       setc (ru6)      res[r1], 0x9
             0x00041f80: c1 b6:       in (2r)         r0, res[r1]
             0x00041f82: c0 77:       retsp (u6)      0x0

<ResetIntHandler>:
             0x00041f84: 18 7b:       clrsr (u6)      0x18
             0x00041f86: 02 7b:       clrsr (u6)      0x2
             0x00041f88: fe 0f:       get (0r)        r11, ed
             0x00041f8a: c2 ea:       setc (ru6)      res[r11], 0x2
             0x00041f8c: ed 07:       clre (0r)       
             0x00041f8e: 0d f0 86 5a: ldw (lru6)      r10, dp[0x346]
             0x00041f92: fa 2f:       set (1r)        sp, r10
             0x00041f94: cf 5e:       ldw (ru6)       r11, sp[0xf]
             0x00041f96: c2 ea:       setc (ru6)      res[r11], 0x2

<ResetDetect>:
             0x00041f98: 00 68:       ldc (ru6)       r0, 0x0
             0x00041f9a: 01 73:       bu (u6)         0x1 <writesuspendvar>

<SuspendDetect>:
             0x00041f9c: 01 68:       ldc (ru6)       r0, 0x1

<writesuspendvar>:
             0x00041f9e: 0d f0 33 73: bu (lu6)        0x373 <Return>
             0x00041fa2: 00 00:       stw (2rus)      r0, r0[0x0]
             0x00041fa4: 00 00:       stw (2rus)      r0, r0[0x0]
             0x00041fa6: 00 00:       stw (2rus)      r0, r0[0x0]
             0x00041fa8: 00 00:       stw (2rus)      r0, r0[0x0]
             0x00041faa: 00 00:       stw (2rus)      r0, r0[0x0]
             0x00041fac: 00 00:       stw (2rus)      r0, r0[0x0]
             0x00041fae: 00 00:       stw (2rus)      r0, r0[0x0]
             0x00041fb0: 00 00:       stw (2rus)      r0, r0[0x0]
             0x00041fb2: 00 00:       stw (2rus)      r0, r0[0x0]
             0x00041fb4: 00 00:       stw (2rus)      r0, r0[0x0]
             0x00041fb6: 00 00:       stw (2rus)      r0, r0[0x0]
             0x00041fb8: 00 00:       stw (2rus)      r0, r0[0x0]
             0x00041fba: 00 00:       stw (2rus)      r0, r0[0x0]
             0x00041fbc: 00 00:       stw (2rus)      r0, r0[0x0]
             0x00041fbe: 00 00:       stw (2rus)      r0, r0[0x0]
             0x00041fc0: 00 00:       stw (2rus)      r0, r0[0x0]
             0x00041fc2: 00 00:       stw (2rus)      r0, r0[0x0]
             0x00041fc4: 00 00:       stw (2rus)      r0, r0[0x0]
             0x00041fc6: 00 00:       stw (2rus)      r0, r0[0x0]
             0x00041fc8: 00 00:       stw (2rus)      r0, r0[0x0]
             0x00041fca: 00 00:       stw (2rus)      r0, r0[0x0]
             0x00041fcc: 00 00:       stw (2rus)      r0, r0[0x0]
             0x00041fce: 00 00:       stw (2rus)      r0, r0[0x0]
             0x00041fd0: 00 00:       stw (2rus)      r0, r0[0x0]
             0x00041fd2: 00 00:       stw (2rus)      r0, r0[0x0]
             0x00041fd4: 00 00:       stw (2rus)      r0, r0[0x0]
             0x00041fd6: 00 00:       stw (2rus)      r0, r0[0x0]
             0x00041fd8: 00 00:       stw (2rus)      r0, r0[0x0]
             0x00041fda: 00 00:       stw (2rus)      r0, r0[0x0]
             0x00041fdc: 00 00:       stw (2rus)      r0, r0[0x0]
             0x00041fde: 00 00:       stw (2rus)      r0, r0[0x0]
             0x00041fe0: 00 00:       stw (2rus)      r0, r0[0x0]
             0x00041fe2: 00 00:       stw (2rus)      r0, r0[0x0]
             0x00041fe4: 00 00:       stw (2rus)      r0, r0[0x0]
             0x00041fe6: 00 00:       stw (2rus)      r0, r0[0x0]
             0x00041fe8: 00 00:       stw (2rus)      r0, r0[0x0]
             0x00041fea: 00 00:       stw (2rus)      r0, r0[0x0]
             0x00041fec: 00 00:       stw (2rus)      r0, r0[0x0]
             0x00041fee: 00 00:       stw (2rus)      r0, r0[0x0]
             0x00041ff0: 00 00:       stw (2rus)      r0, r0[0x0]
             0x00041ff2: 00 00:       stw (2rus)      r0, r0[0x0]
             0x00041ff4: 00 00:       stw (2rus)      r0, r0[0x0]
             0x00041ff6: 00 00:       stw (2rus)      r0, r0[0x0]
             0x00041ff8: 00 00:       stw (2rus)      r0, r0[0x0]
             0x00041ffa: 00 00:       stw (2rus)      r0, r0[0x0]
             0x00041ffc: 00 00:       stw (2rus)      r0, r0[0x0]
             0x00041ffe: 00 00:       stw (2rus)      r0, r0[0x0]

<Pid_Out>:
             0x00042000: 20 fd ee 97: inpw (l2rus)    r10, res[r0], 0x8
             0x00042004: aa ae:       shr (2rus)      r10, r10, 0x18
             0x00042006: 01 b7:       in (2r)         r4, res[r1]
             0x00042008: 0c f0 38 71: bt (lru6)       r4, 0x338 <Pid_Reserved> <Pid_Ack> <Pid_NYet> <Pid_Nyet> <Pid_Data2> <Pid_Split> <Pid_Nak> <Pid_Pre> <Pid_Stall> <Pid_MData> <Pid_Datam> <Pid_Data0> <Pid_Data1> <Pid_Bad> <InvalidToken> <XUD_InvalidToken>
             0x0004200c: 76 4d:       ldw (3r)        r3, r5[r10]
             0x0004200e: f4 78:       bf (ru6)        r3, 0x34 <XUD_TokenOut_BufferFull>
             0x00042010: 1f 08:       ldw (2rus)      r1, r3[0x3]

<CheckEpTypeOut>:
             0x00042012: fd 0a:       ldw (2rus)      r11, r3[0x5]
             0x00042014: d1 72:       bt (ru6)        r11, 0x11 <DoOutNonIso>

<OutReady>:
             0x00042016: f6 fd ec 07: stw (l3r)       r11, r5[r10]
             0x0004201a: 24 d2:       bl (u10)        0x224 <doRXData>
             0x0004201c: ed 07:       clre (0r)       

<InformEP_Iso>:
             0x0004201e: bd 08:       ldw (2rus)      r11, r3[0x1]
             0x00042020: 63 af:       out (r2r)       res[r11], r4
             0x00042022: b3 0f:       outt (r2r)      res[r11], r8
             0x00042024: cc f0 b4 69: ldc (lru6)      r6, 0x3334
             0x00042028: 55 5c:       ldw (ru6)       r1, sp[0x15]
             0x0004202a: 00 f0 8c 62: ldaw (lru6)     r10, dp[0xc]

<XUD_TokenRx_Pid_>:
             0x0004202e: 30 fd ee 97: inpw (l2rus)    r11, res[r0], 0x8
             0x00042032: be ae:       shr (2rus)      r11, r11, 0x18
             0x00042034: ab 4e:       ldw (3r)        r10, r10[r11]

<BranchOnTokenPid_>:
             0x00042036: fa 27:       bau (1r)        r10

<DoOutNonIso>:
             0x00042038: 15 d2:       bl (u10)        0x215 <doRXData>
             0x0004203a: ed 07:       clre (0r)       
             0x0004203c: 5b 35:       eq (3r)         r1, r6, r11

<doRXDataReturn_NonIso>:
             0x0004203e: 0c f0 52 78: bf (lru6)       r1, 0x312 <NextTokenAfterOut>
             0x00042042: 03 f0 d2 6a: ldc (lru6)      r11, 0xd2
             0x00042046: 38 fd ed 97: outpw (l2rus)   res[r2], r11, 0x8
             0x0004204a: f2 87:       syncr (1r)      res[r2]

<StoreTailDataOut>:
             0x0004204c: c0 6a:       ldc (ru6)       r11, 0x0
             0x0004204e: f6 fd ec 07: stw (l3r)       r11, r5[r10]
             0x00042052: bd 08:       ldw (2rus)      r11, r3[0x1]
             0x00042054: 63 af:       out (r2r)       res[r11], r4
             0x00042056: b3 0f:       outt (r2r)      res[r11], r8
             0x00042058: 0c f0 05 73: bu (lu6)        0x305 <NextTokenAfterOut>

<Err_RxErr>:
             0x0004205c: 03 7b:       clrsr (u6)      0x3
             0x0004205e: ed 07:       clre (0r)       
             0x00042060: 8f 5e:       ldw (ru6)       r10, sp[0xf]
             0x00042062: ae b7:       in (2r)         r11, res[r10]
             0x00042064: fa 07:       eeu (1r)        res[r10]
             0x00042066: 8a 5e:       ldw (ru6)       r10, sp[0xa]
             0x00042068: ae b7:       in (2r)         r11, res[r10]
             0x0004206a: 43 7b:       setsr (u6)      0x3
             0x0004206c: 0b f0 36 73: bu (lu6)        0x2f6 <NextToken>

<Err_EndpointProblem>:
             0x00042070: 0b f0 34 73: bu (lu6)        0x2f4 <NextToken>

<Err_BadPidSeq>:
             0x00042074: 0b f0 32 73: bu (lu6)        0x2f2 <NextToken>

<XUD_TokenOut_BufferFull>:
             0x00042078: 00 f0 44 5a: ldw (lru6)      r9, dp[0x4]
             0x0004207c: 57 ea:       setc (ru6)      res[r9], 0x17
             0x0004207e: 59 ea:       setc (ru6)      res[r9], 0x19

<XUD_TokenOut_WaitForPacketEnd>:
             0x00042080: ad b7:       in (2r)         r11, res[r9]
             0x00042082: 51 ea:       setc (ru6)      res[r9], 0x11
             0x00042084: ad b7:       in (2r)         r11, res[r9]
             0x00042086: 25 5d:       ldw (ru6)       r4, sp[0x25]
             0x00042088: 82 4d:       ldw (3r)        r4, r4[r10]
             0x0004208a: 06 79:       bf (ru6)        r4, 0x6 <PrimaryBufferFull_NoNak>
             0x0004208c: 0c f0 6e 61: ldaw (lru6)     r5, dp[0x32e]
             0x00042090: f6 4d:       ldw (3r)        r11, r5[r10]
             0x00042092: 38 fd ed 97: outpw (l2rus)   res[r2], r11, 0x8
             0x00042096: f2 87:       syncr (1r)      res[r2]

<PrimaryBufferFull_NoNak>:
             0x00042098: 17 e8:       setc (ru6)      res[r0], 0x17
             0x0004209a: 0b f0 1f 73: bu (lu6)        0x2df <NextToken>

<OutDataTimeOut>:
             0x0004209e: 0b f0 1d 73: bu (lu6)        0x2dd <NextToken>
             0x000420a2: ff 17:       nop (0r)        

<Pid_Ping>:
             0x000420a4: 20 fd ee 97: inpw (l2rus)    r10, res[r0], 0x8
             0x000420a8: aa ae:       shr (2rus)      r10, r10, 0x18
             0x000420aa: 4d b7:       in (2r)         r11, res[r1]
             0x000420ac: 0b f0 e6 72: bt (lru6)       r11, 0x2e6 <Pid_Reserved> <Pid_Ack> <Pid_NYet> <Pid_Nyet> <Pid_Data2> <Pid_Split> <Pid_Nak> <Pid_Pre> <Pid_Stall> <Pid_MData> <Pid_Datam> <Pid_Data0> <Pid_Data1> <Pid_Bad> <InvalidToken> <XUD_InvalidToken>

<LoadStatTablePing>:
             0x000420b0: f6 4d:       ldw (3r)        r11, r5[r10]
             0x000420b2: c9 7a:       bf (ru6)        r11, 0x9 <PrimaryBufferFull_PING>

<PrimaryBufferEmpty_PING>:
             0x000420b4: ff 17:       nop (0r)        
             0x000420b6: ff 17:       nop (0r)        
             0x000420b8: ff 17:       nop (0r)        
             0x000420ba: 03 f0 d2 6a: ldc (lru6)      r11, 0xd2
             0x000420be: 38 fd ed 97: outpw (l2rus)   res[r2], r11, 0x8
             0x000420c2: 0b f0 13 73: bu (lu6)        0x2d3 <NextTokenAfterInNak> <Loop_BadPid> <NextTokenAfterPing>

<PrimaryBufferFull_PING>:
             0x000420c6: ff 17:       nop (0r)        
             0x000420c8: ff 17:       nop (0r)        
             0x000420ca: ff 17:       nop (0r)        
             0x000420cc: 01 f0 da 6a: ldc (lru6)      r11, 0x5a
             0x000420d0: 38 fd ed 97: outpw (l2rus)   res[r2], r11, 0x8
             0x000420d4: 0b f0 0a 73: bu (lu6)        0x2ca <NextTokenAfterInNak> <Loop_BadPid> <NextTokenAfterPing>

<InNotReady>:
             0x000420d8: e6 5e:       ldw (ru6)       r11, sp[0x26]
             0x000420da: be 4e:       ldw (3r)        r11, r11[r10]
             0x000420dc: cb 72:       bt (ru6)        r11, 0xb <XUD_IN_TxNak>
             0x000420de: 03 f0 c3 6a: ldc (lru6)      r11, 0xc3
             0x000420e2: 3a fd ed 97: outpw (l2rus)   res[r2], r11, 0x18
             0x000420e6: 00 f0 8c 62: ldaw (lru6)     r10, dp[0xc]
             0x000420ea: 30 fd ee 97: inpw (l2rus)    r11, res[r0], 0x8
             0x000420ee: be ae:       shr (2rus)      r11, r11, 0x18
             0x000420f0: ab 4e:       ldw (3r)        r10, r10[r11]
             0x000420f2: fa 27:       bau (1r)        r10

<XUD_IN_TxNak>:
             0x000420f4: 0c f0 de 62: ldaw (lru6)     r11, dp[0x31e]
             0x000420f8: be 4e:       ldw (3r)        r11, r11[r10]
             0x000420fa: 38 fd ed 97: outpw (l2rus)   res[r2], r11, 0x8
             0x000420fe: 00 f0 8c 62: ldaw (lru6)     r10, dp[0xc]
             0x00042102: 30 fd ee 97: inpw (l2rus)    r11, res[r0], 0x8
             0x00042106: be ae:       shr (2rus)      r11, r11, 0x18
             0x00042108: ab 4e:       ldw (3r)        r10, r10[r11]
             0x0004210a: fa 27:       bau (1r)        r10
             0x0004210c: ff 17:       nop (0r)        
             0x0004210e: ff 17:       nop (0r)        
             0x00042110: ff 17:       nop (0r)        
             0x00042112: ff 17:       nop (0r)        
             0x00042114: ff 17:       nop (0r)        
             0x00042116: ff 17:       nop (0r)        
             0x00042118: ff 17:       nop (0r)        
             0x0004211a: ff 17:       nop (0r)        
             0x0004211c: ff 17:       nop (0r)        
             0x0004211e: ff 17:       nop (0r)        
             0x00042120: ff 17:       nop (0r)        
             0x00042122: ff 17:       nop (0r)        
             0x00042124: ff 17:       nop (0r)        
             0x00042126: ff 17:       nop (0r)        
             0x00042128: ff 17:       nop (0r)        
             0x0004212a: ff 17:       nop (0r)        
             0x0004212c: ff 17:       nop (0r)        
             0x0004212e: ff 17:       nop (0r)        
             0x00042130: ff 17:       nop (0r)        
             0x00042132: ff 17:       nop (0r)        
             0x00042134: ff 17:       nop (0r)        
             0x00042136: ff 17:       nop (0r)        
             0x00042138: ff 17:       nop (0r)        
             0x0004213a: ff 17:       nop (0r)        
             0x0004213c: ff 17:       nop (0r)        
             0x0004213e: ff 17:       nop (0r)        
             0x00042140: ff 17:       nop (0r)        
             0x00042142: ff 17:       nop (0r)        
             0x00042144: ff 17:       nop (0r)        
             0x00042146: ff 17:       nop (0r)        
             0x00042148: ff 17:       nop (0r)        
             0x0004214a: ff 17:       nop (0r)        
             0x0004214c: ff 17:       nop (0r)        
             0x0004214e: ff 17:       nop (0r)        
             0x00042150: ff 17:       nop (0r)        
             0x00042152: ff 17:       nop (0r)        
             0x00042154: ff 17:       nop (0r)        
             0x00042156: ff 17:       nop (0r)        
             0x00042158: ff 17:       nop (0r)        
             0x0004215a: ff 17:       nop (0r)        
             0x0004215c: ff 17:       nop (0r)        
             0x0004215e: ff 17:       nop (0r)        
             0x00042160: ff 17:       nop (0r)        
             0x00042162: ff 17:       nop (0r)        
             0x00042164: ff 17:       nop (0r)        
             0x00042166: ff 17:       nop (0r)        
             0x00042168: ff 17:       nop (0r)        
             0x0004216a: ff 17:       nop (0r)        
             0x0004216c: ff 17:       nop (0r)        
             0x0004216e: ff 17:       nop (0r)        
             0x00042170: ff 17:       nop (0r)        
             0x00042172: ff 17:       nop (0r)        
             0x00042174: ff 17:       nop (0r)        
             0x00042176: ff 17:       nop (0r)        
             0x00042178: ff 17:       nop (0r)        
             0x0004217a: ff 17:       nop (0r)        
             0x0004217c: ff 17:       nop (0r)        
             0x0004217e: ff 17:       nop (0r)        
             0x00042180: 00 00:       stw (2rus)      r0, r0[0x0]
             0x00042182: 00 00:       stw (2rus)      r0, r0[0x0]
             0x00042184: 00 00:       stw (2rus)      r0, r0[0x0]
             0x00042186: 00 00:       stw (2rus)      r0, r0[0x0]
             0x00042188: 00 00:       stw (2rus)      r0, r0[0x0]
             0x0004218a: 00 00:       stw (2rus)      r0, r0[0x0]
             0x0004218c: 00 00:       stw (2rus)      r0, r0[0x0]
             0x0004218e: 00 00:       stw (2rus)      r0, r0[0x0]
             0x00042190: 00 00:       stw (2rus)      r0, r0[0x0]
             0x00042192: 00 00:       stw (2rus)      r0, r0[0x0]
             0x00042194: 00 00:       stw (2rus)      r0, r0[0x0]
             0x00042196: 00 00:       stw (2rus)      r0, r0[0x0]
             0x00042198: 00 00:       stw (2rus)      r0, r0[0x0]
             0x0004219a: 00 00:       stw (2rus)      r0, r0[0x0]
             0x0004219c: 00 00:       stw (2rus)      r0, r0[0x0]
             0x0004219e: 00 00:       stw (2rus)      r0, r0[0x0]
             0x000421a0: 00 00:       stw (2rus)      r0, r0[0x0]
             0x000421a2: 00 00:       stw (2rus)      r0, r0[0x0]
             0x000421a4: 00 00:       stw (2rus)      r0, r0[0x0]
             0x000421a6: 00 00:       stw (2rus)      r0, r0[0x0]
             0x000421a8: 00 00:       stw (2rus)      r0, r0[0x0]
             0x000421aa: 00 00:       stw (2rus)      r0, r0[0x0]
             0x000421ac: 00 00:       stw (2rus)      r0, r0[0x0]
             0x000421ae: 00 00:       stw (2rus)      r0, r0[0x0]
             0x000421b0: 00 00:       stw (2rus)      r0, r0[0x0]
             0x000421b2: 00 00:       stw (2rus)      r0, r0[0x0]
             0x000421b4: 00 00:       stw (2rus)      r0, r0[0x0]
             0x000421b6: 00 00:       stw (2rus)      r0, r0[0x0]
             0x000421b8: 00 00:       stw (2rus)      r0, r0[0x0]
             0x000421ba: 00 00:       stw (2rus)      r0, r0[0x0]
             0x000421bc: 00 00:       stw (2rus)      r0, r0[0x0]
             0x000421be: 00 00:       stw (2rus)      r0, r0[0x0]
             0x000421c0: 00 00:       stw (2rus)      r0, r0[0x0]
             0x000421c2: 00 00:       stw (2rus)      r0, r0[0x0]
             0x000421c4: 00 00:       stw (2rus)      r0, r0[0x0]
             0x000421c6: 00 00:       stw (2rus)      r0, r0[0x0]
             0x000421c8: 00 00:       stw (2rus)      r0, r0[0x0]
             0x000421ca: 00 00:       stw (2rus)      r0, r0[0x0]
             0x000421cc: 00 00:       stw (2rus)      r0, r0[0x0]
             0x000421ce: 00 00:       stw (2rus)      r0, r0[0x0]
             0x000421d0: 00 00:       stw (2rus)      r0, r0[0x0]
             0x000421d2: 00 00:       stw (2rus)      r0, r0[0x0]
             0x000421d4: 00 00:       stw (2rus)      r0, r0[0x0]
             0x000421d6: 00 00:       stw (2rus)      r0, r0[0x0]
             0x000421d8: 00 00:       stw (2rus)      r0, r0[0x0]
             0x000421da: 00 00:       stw (2rus)      r0, r0[0x0]

<Pid_In>:
             0x000421dc: 20 fd ee 97: inpw (l2rus)    r10, res[r0], 0x8
             0x000421e0: aa ae:       shr (2rus)      r10, r10, 0x18
             0x000421e2: 4d b7:       in (2r)         r11, res[r1]
             0x000421e4: 09 f0 ca 72: bt (lru6)       r11, 0x24a <Pid_Reserved> <Pid_Ack> <Pid_NYet> <Pid_Nyet> <Pid_Data2> <Pid_Split> <Pid_Nak> <Pid_Pre> <Pid_Stall> <Pid_MData> <Pid_Datam> <Pid_Data0> <Pid_Data1> <Pid_Bad> <InvalidToken> <XUD_InvalidToken>
             0x000421e8: f8 fb ec 9f: ldaw (l2rus)    r3, r10[0x4]
             0x000421ec: 07 49:       ldw (3r)        r4, r5[r3]
             0x000421ee: 02 f0 0d 7d: bf (lru6)       r4, -0x8d <InNotReady>

<In_LoadPid>:
             0x000421f2: b0 0b:       ldw (2rus)      r11, r4[0x4]

<InReady>:
             0x000421f4: 43 09:       ldw (2rus)      r8, r4[0x3]
             0x000421f6: 63 0b:       ldw (2rus)      r6, r4[0x7]
             0x000421f8: 42 0b:       ldw (2rus)      r4, r4[0x6]
             0x000421fa: 02 f0 3f 79: bf (lru6)       r4, 0xbf <SmallTxPacket>
             0x000421fe: e6 2f:       bru (1r)        r6

<TxTail0>:
             0x00042200: 20 4c:       ldw (3r)        r6, r8[r4]
             0x00042202: 01 91:       add (2rus)      r4, r4, 0x1

<XUD_IN_TxPid_Tail0>:
             0x00042204: 38 fd ed 97: outpw (l2rus)   res[r2], r11, 0x8
             0x00042208: 0a af:       out (r2r)       res[r2], r6
             0x0004220a: b9 fd ec af: crc32 (l3r)     r7, r6, r9
             0x0004220e: 06 79:       bf (ru6)        r4, 0x6 <TxLoop0End>

<TxLoop0>:
             0x00042210: 20 4c:       ldw (3r)        r6, r8[r4]
             0x00042212: 01 91:       add (2rus)      r4, r4, 0x1

<TxLoop0_Out>:
             0x00042214: 0a af:       out (r2r)       res[r2], r6
             0x00042216: b9 fd ec af: crc32 (l3r)     r7, r6, r9
             0x0004221a: 06 75:       bt (ru6)        r4, -0x6 <TxLoop0>

<TxLoop0End>:
             0x0004221c: b1 fd ec af: crc32 (l3r)     r7, r4, r9
             0x00042220: cf 8f:       not (2r)        r7, r7

<XUD_IN_TxCrc_Tail0>:
             0x00042222: f9 fc ed 97: outpw (l2rus)   res[r2], r7, 0x10
             0x00042226: 01 f0 27 73: bu (lu6)        0x67 <DoneTail>
             0x0004222a: ff 17:       nop (0r)        
             0x0004222c: ff 17:       nop (0r)        
             0x0004222e: ff 17:       nop (0r)        
             0x00042230: ff 17:       nop (0r)        
             0x00042232: ff 17:       nop (0r)        
             0x00042234: ff 17:       nop (0r)        
             0x00042236: ff 17:       nop (0r)        
             0x00042238: ff 17:       nop (0r)        
             0x0004223a: ff 17:       nop (0r)        
             0x0004223c: ff 17:       nop (0r)        
             0x0004223e: ff 17:       nop (0r)        

<TxTail1>:
             0x00042240: 20 4c:       ldw (3r)        r6, r8[r4]
             0x00042242: 01 91:       add (2rus)      r4, r4, 0x1

<XUD_IN_TxPid_Tail1>:
             0x00042244: 38 fd ed 97: outpw (l2rus)   res[r2], r11, 0x8
             0x00042248: 0a af:       out (r2r)       res[r2], r6
             0x0004224a: b9 fd ec af: crc32 (l3r)     r7, r6, r9
             0x0004224e: 06 79:       bf (ru6)        r4, 0x6 <TxLoop1End>

<TxLoop1>:
             0x00042250: 20 4c:       ldw (3r)        r6, r8[r4]
             0x00042252: 01 91:       add (2rus)      r4, r4, 0x1
             0x00042254: 0a af:       out (r2r)       res[r2], r6
             0x00042256: b9 fd ec af: crc32 (l3r)     r7, r6, r9
             0x0004225a: 06 75:       bt (ru6)        r4, -0x6 <TxLoop1>

<TxLoop1End>:
             0x0004225c: 20 4c:       ldw (3r)        r6, r8[r4]
             0x0004225e: e8 fc ed 97: outpw (l2rus)   res[r2], r6, 0x8
             0x00042262: a9 fd e7 07: crc8 (l4r)      r7, r6, r6, r9
             0x00042266: b1 fd ec af: crc32 (l3r)     r7, r4, r9
             0x0004226a: cf 8f:       not (2r)        r7, r7

<XUD_IN_TxCrc_Tail1>:
             0x0004226c: f9 fc ed 97: outpw (l2rus)   res[r2], r7, 0x10
             0x00042270: 01 f0 02 73: bu (lu6)        0x42 <DoneTail>
             0x00042274: ff 17:       nop (0r)        
             0x00042276: ff 17:       nop (0r)        
             0x00042278: ff 17:       nop (0r)        
             0x0004227a: ff 17:       nop (0r)        
             0x0004227c: ff 17:       nop (0r)        
             0x0004227e: ff 17:       nop (0r)        

<TxTail2>:
             0x00042280: 20 4c:       ldw (3r)        r6, r8[r4]
             0x00042282: b9 fd ec af: crc32 (l3r)     r7, r6, r9

<XUD_IN_TxPid_Tail2>:
             0x00042286: 38 fd ed 97: outpw (l2rus)   res[r2], r11, 0x8
             0x0004228a: 0a af:       out (r2r)       res[r2], r6
             0x0004228c: 01 91:       add (2rus)      r4, r4, 0x1
             0x0004228e: 06 79:       bf (ru6)        r4, 0x6 <TxLoop2End>

<TxLoop2>:
             0x00042290: 20 4c:       ldw (3r)        r6, r8[r4]
             0x00042292: 01 91:       add (2rus)      r4, r4, 0x1
             0x00042294: b9 fd ec af: crc32 (l3r)     r7, r6, r9
             0x00042298: 0a af:       out (r2r)       res[r2], r6
             0x0004229a: 06 75:       bt (ru6)        r4, -0x6 <TxLoop2>

<TxLoop2End>:
             0x0004229c: 20 4c:       ldw (3r)        r6, r8[r4]
             0x0004229e: f9 fd e7 07: crc8 (l4r)      r7, r11, r6, r9
             0x000422a2: e9 fc ed 97: outpw (l2rus)   res[r2], r6, 0x10
             0x000422a6: bd fe e7 07: crc8 (l4r)      r7, r11, r11, r9
             0x000422aa: b1 fd ec af: crc32 (l3r)     r7, r4, r9
             0x000422ae: cf 8f:       not (2r)        r7, r7

<XUD_IN_TxCrc_Tail2>:
             0x000422b0: f9 fc ed 97: outpw (l2rus)   res[r2], r7, 0x10
             0x000422b4: 21 73:       bu (u6)         0x21 <DoneTail>
             0x000422b6: ff 17:       nop (0r)        
             0x000422b8: ff 17:       nop (0r)        
             0x000422ba: ff 17:       nop (0r)        
             0x000422bc: ff 17:       nop (0r)        
             0x000422be: ff 17:       nop (0r)        

<TxTail3>:
             0x000422c0: 20 4c:       ldw (3r)        r6, r8[r4]
             0x000422c2: 01 91:       add (2rus)      r4, r4, 0x1

<XUD_IN_TxPid_Tail3>:
             0x000422c4: 38 fd ed 97: outpw (l2rus)   res[r2], r11, 0x8
             0x000422c8: 0a af:       out (r2r)       res[r2], r6
             0x000422ca: b9 fd ec af: crc32 (l3r)     r7, r6, r9
             0x000422ce: 06 79:       bf (ru6)        r4, 0x6 <TxLoop3End>

<TxLoop3>:
             0x000422d0: 20 4c:       ldw (3r)        r6, r8[r4]
             0x000422d2: 01 91:       add (2rus)      r4, r4, 0x1
             0x000422d4: b9 fd ec af: crc32 (l3r)     r7, r6, r9
             0x000422d8: 0a af:       out (r2r)       res[r2], r6
             0x000422da: 06 75:       bt (ru6)        r4, -0x6 <TxLoop3>

<TxLoop3End>:
             0x000422dc: 20 4c:       ldw (3r)        r6, r8[r4]
             0x000422de: f9 fd e7 07: crc8 (l4r)      r7, r11, r6, r9
             0x000422e2: ea fc ed 97: outpw (l2rus)   res[r2], r6, 0x18
             0x000422e6: bd fe e7 07: crc8 (l4r)      r7, r11, r11, r9
             0x000422ea: bd fe e7 07: crc8 (l4r)      r7, r11, r11, r9
             0x000422ee: b1 fd ec af: crc32 (l3r)     r7, r4, r9
             0x000422f2: cf 8f:       not (2r)        r7, r7

<XUD_IN_TxCrc_Tail3>:
             0x000422f4: f9 fc ed 97: outpw (l2rus)   res[r2], r7, 0x10

<DoneTail>:
             0x000422f8: e6 5e:       ldw (ru6)       r11, sp[0x26]
             0x000422fa: be 4e:       ldw (3r)        r11, r11[r10]
             0x000422fc: c2 72:       bt (ru6)        r11, 0x2 <InNonISO> <SetupReceiveHandShake>

<InISO>:
             0x000422fe: 40 6a:       ldc (ru6)       r9, 0x0
             0x00042300: 1a 73:       bu (u6)         0x1a <DoneTx> <ClearInEpReady>

<InNonISO>:
<SetupReceiveHandShake>:
             0x00042302: c8 6a:       ldc (ru6)       r11, 0x8
             0x00042304: 4c c7:       setpsc (r2r)    res[r0], r11
             0x00042306: f0 07:       eeu (1r)        res[r0]

<SetupTimeout>:
             0x00042308: 55 5c:       ldw (ru6)       r1, sp[0x15]
             0x0004230a: 4d b7:       in (2r)         r11, res[r1]
             0x0004230c: 4d 3f:       getts (2r)      r11, res[r1]
             0x0004230e: 0d f0 41 5a: ldw (lru6)      r9, dp[0x341]
             0x00042312: bd 16:       add (3r)        r11, r11, r9
             0x00042314: 5d 3f:       setpt (r2r)     res[r1], r11
             0x00042316: f1 07:       eeu (1r)        res[r1]

<WaitForHandshake>:
             0x00042318: ec 07:       waiteu (0r)     
             0x0004231a: ff 17:       nop (0r)        

<TxHandshakeTimeOut>:
             0x0004231c: 4d b7:       in (2r)         r11, res[r1]
             0x0004231e: e1 07:       edu (1r)        res[r1]
             0x00042320: e0 07:       edu (1r)        res[r0]
             0x00042322: 10 73:       bu (u6)         0x10 <BadHandShake>

<TxHandShakeReceived>:
<XUD_IN_RxAck>:
             0x00042324: 4c b7:       in (2r)         r11, res[r0]
             0x00042326: e1 87:       clrpt (1r)      res[r1]
             0x00042328: e0 07:       edu (1r)        res[r0]
             0x0004232a: be ae:       shr (2rus)      r11, r11, 0x18
             0x0004232c: 42 6a:       ldc (ru6)       r9, 0x2
             0x0004232e: 9d fe ec 0f: xor (l3r)       r9, r11, r9
             0x00042332: e1 07:       edu (1r)        res[r1]
             0x00042334: 47 72:       bt (ru6)        r9, 0x7 <BadHandShake>

<DoneTx>:
<ClearInEpReady>:
             0x00042336: 67 49:       ldw (3r)        r10, r5[r3]
             0x00042338: 57 f9 ec 07: stw (l3r)       r9, r5[r3]
             0x0004233c: 39 0a:       ldw (2rus)      r11, r10[0x1]
             0x0004233e: af af:       out (r2r)       res[r11], r11
             0x00042340: 06 f0 0c 73: bu (lu6)        0x18c <NextToken>

<BadHandShake>:
             0x00042344: 06 f0 0a 73: bu (lu6)        0x18a <NextToken>
             0x00042348: ff 17:       nop (0r)        
             0x0004234a: ff 17:       nop (0r)        
             0x0004234c: ff 17:       nop (0r)        
             0x0004234e: ff 17:       nop (0r)        
             0x00042350: ff 17:       nop (0r)        
             0x00042352: ff 17:       nop (0r)        
             0x00042354: ff 17:       nop (0r)        
             0x00042356: ff 17:       nop (0r)        
             0x00042358: ff 17:       nop (0r)        
             0x0004235a: ff 17:       nop (0r)        
             0x0004235c: ff 17:       nop (0r)        
             0x0004235e: ff 17:       nop (0r)        
             0x00042360: 00 00:       stw (2rus)      r0, r0[0x0]
             0x00042362: 00 00:       stw (2rus)      r0, r0[0x0]
             0x00042364: 00 00:       stw (2rus)      r0, r0[0x0]
             0x00042366: 00 00:       stw (2rus)      r0, r0[0x0]
             0x00042368: 00 00:       stw (2rus)      r0, r0[0x0]
             0x0004236a: 00 00:       stw (2rus)      r0, r0[0x0]
             0x0004236c: 00 00:       stw (2rus)      r0, r0[0x0]
             0x0004236e: 00 00:       stw (2rus)      r0, r0[0x0]
             0x00042370: 00 00:       stw (2rus)      r0, r0[0x0]
             0x00042372: 00 00:       stw (2rus)      r0, r0[0x0]
             0x00042374: 00 00:       stw (2rus)      r0, r0[0x0]
             0x00042376: 00 00:       stw (2rus)      r0, r0[0x0]
             0x00042378: 00 00:       stw (2rus)      r0, r0[0x0]
             0x0004237a: 00 00:       stw (2rus)      r0, r0[0x0]

<SmallTxPacket>:
             0x0004237c: 40 4c:       ldw (3r)        r8, r8[r4]
             0x0004237e: e6 2f:       bru (1r)        r6

<TxTail0s>:
             0x00042380: 00 6a:       ldc (ru6)       r8, 0x0

<XUD_IN_TxPid_TailS0>:
             0x00042382: 38 fd ed 97: outpw (l2rus)   res[r2], r11, 0x8

<XUD_IN_TxCrc_TailS0>:
             0x00042386: 09 fd ed 97: outpw (l2rus)   res[r2], r8, 0x10
             0x0004238a: 01 f0 0b 77: bu (lu6)        -0x4b <DoneTail>
             0x0004238e: ff 17:       nop (0r)        
             0x00042390: ff 17:       nop (0r)        
             0x00042392: ff 17:       nop (0r)        
             0x00042394: ff 17:       nop (0r)        
             0x00042396: ff 17:       nop (0r)        
             0x00042398: ff 17:       nop (0r)        
             0x0004239a: ff 17:       nop (0r)        
             0x0004239c: ff 17:       nop (0r)        
             0x0004239e: ff 17:       nop (0r)        
             0x000423a0: ff 17:       nop (0r)        
             0x000423a2: ff 17:       nop (0r)        
             0x000423a4: ff 17:       nop (0r)        
             0x000423a6: ff 17:       nop (0r)        
             0x000423a8: ff 17:       nop (0r)        
             0x000423aa: ff 17:       nop (0r)        
             0x000423ac: ff 17:       nop (0r)        
             0x000423ae: ff 17:       nop (0r)        
             0x000423b0: ff 17:       nop (0r)        
             0x000423b2: ff 17:       nop (0r)        
             0x000423b4: ff 17:       nop (0r)        
             0x000423b6: ff 17:       nop (0r)        
             0x000423b8: ff 17:       nop (0r)        
             0x000423ba: ff 17:       nop (0r)        
             0x000423bc: ff 17:       nop (0r)        
             0x000423be: ff 17:       nop (0r)        

<TxTail1s>:
             0x000423c0: 80 69:       ldc (ru6)       r6, 0x0
             0x000423c2: 80 a6:       shl (2rus)      r8, r8, 0x8
             0x000423c4: bc 46:       or (3r)         r11, r11, r8
             0x000423c6: 80 ae:       shr (2rus)      r8, r8, 0x8
             0x000423c8: 41 fe e7 07: crc8 (l4r)      r7, r4, r8, r9
             0x000423cc: b9 fd ec af: crc32 (l3r)     r7, r6, r9
             0x000423d0: cf 8f:       not (2r)        r7, r7

<XUD_IN_TxPid_TailS1>:
             0x000423d2: 39 fd ed 97: outpw (l2rus)   res[r2], r11, 0x10

<XUD_IN_TxCrc_TailS1>:
             0x000423d6: f9 fc ed 97: outpw (l2rus)   res[r2], r7, 0x10
             0x000423da: 01 f0 33 77: bu (lu6)        -0x73 <DoneTail>
             0x000423de: ff 17:       nop (0r)        
             0x000423e0: ff 17:       nop (0r)        
             0x000423e2: ff 17:       nop (0r)        
             0x000423e4: ff 17:       nop (0r)        
             0x000423e6: ff 17:       nop (0r)        
             0x000423e8: ff 17:       nop (0r)        
             0x000423ea: ff 17:       nop (0r)        
             0x000423ec: ff 17:       nop (0r)        
             0x000423ee: ff 17:       nop (0r)        
             0x000423f0: ff 17:       nop (0r)        
             0x000423f2: ff 17:       nop (0r)        
             0x000423f4: ff 17:       nop (0r)        
             0x000423f6: ff 17:       nop (0r)        
             0x000423f8: ff 17:       nop (0r)        
             0x000423fa: ff 17:       nop (0r)        
             0x000423fc: ff 17:       nop (0r)        
             0x000423fe: ff 17:       nop (0r)        

<TxTail2s>:
             0x00042400: 80 69:       ldc (ru6)       r6, 0x0
             0x00042402: 80 a6:       shl (2rus)      r8, r8, 0x8
             0x00042404: bc 46:       or (3r)         r11, r11, r8
             0x00042406: 80 ae:       shr (2rus)      r8, r8, 0x8
             0x00042408: 81 fe e7 07: crc8 (l4r)      r7, r8, r8, r9
             0x0004240c: 81 fe e7 07: crc8 (l4r)      r7, r8, r8, r9
             0x00042410: b9 fd ec af: crc32 (l3r)     r7, r6, r9
             0x00042414: cf 8f:       not (2r)        r7, r7
             0x00042416: ac ad:       shr (2rus)      r6, r7, 0x8
             0x00042418: be a5:       shl (2rus)      r7, r7, 0x18
             0x0004241a: be 47:       zext (rus)      r11, 0x18
             0x0004241c: 7f 44:       or (3r)         r11, r11, r7

<XUD_IN_TxPid_TailS2>:
             0x0004241e: 4e af:       out (r2r)       res[r2], r11

<XUD_IN_TxCrc_TailS2>:
             0x00042420: e8 fc ed 97: outpw (l2rus)   res[r2], r6, 0x8
             0x00042424: 02 f0 18 77: bu (lu6)        -0x98 <DoneTail>
             0x00042428: ff 17:       nop (0r)        
             0x0004242a: ff 17:       nop (0r)        
             0x0004242c: ff 17:       nop (0r)        
             0x0004242e: ff 17:       nop (0r)        
             0x00042430: ff 17:       nop (0r)        
             0x00042432: ff 17:       nop (0r)        
             0x00042434: ff 17:       nop (0r)        
             0x00042436: ff 17:       nop (0r)        
             0x00042438: ff 17:       nop (0r)        
             0x0004243a: ff 17:       nop (0r)        
             0x0004243c: ff 17:       nop (0r)        
             0x0004243e: ff 17:       nop (0r)        

<TxTail3s>:
             0x00042440: 80 69:       ldc (ru6)       r6, 0x0

<XUD_IN_TxPid_TailS3>:
             0x00042442: 38 fd ed 97: outpw (l2rus)   res[r2], r11, 0x8
             0x00042446: 0a fd ed 97: outpw (l2rus)   res[r2], r8, 0x18
             0x0004244a: 81 fe e7 07: crc8 (l4r)      r7, r8, r8, r9
             0x0004244e: 81 fe e7 07: crc8 (l4r)      r7, r8, r8, r9
             0x00042452: 81 fe e7 07: crc8 (l4r)      r7, r8, r8, r9
             0x00042456: b9 fd ec af: crc32 (l3r)     r7, r6, r9
             0x0004245a: cf 8f:       not (2r)        r7, r7

<XUD_IN_TxCrc_TailS3>:
             0x0004245c: f9 fc ed 97: outpw (l2rus)   res[r2], r7, 0x10
             0x00042460: 02 f0 36 77: bu (lu6)        -0xb6 <DoneTail>

<doRXData>:
             0x00042464: ca 5e:       ldw (ru6)       r11, sp[0xa]
             0x00042466: a3 b7:       in (2r)         r8, res[r11]
             0x00042468: 00 fd ee 97: inpw (l2rus)    r8, res[r0], 0x8

<GotRxPid>:
             0x0004246c: ce 02:       stw (2rus)      r8, r3[0x6]
             0x0004246e: fb 07:       eeu (1r)        res[r11]
             0x00042470: 00 f0 41 7b: setsr (lu6)     0x1

<NextRxWord>:
             0x00042474: 4c b7:       in (2r)         r11, res[r0]
             0x00042476: 6d fe ec af: crc32 (l3r)     r6, r11, r9
             0x0004247a: f4 fa ec 07: stw (l3r)       r11, r1[r4]
             0x0004247e: 01 91:       add (2rus)      r4, r4, 0x1
             0x00042480: 07 77:       bu (u6)         -0x7 <NextRxWord>
             0x00042482: ff 17:       nop (0r)        
             0x00042484: ff 17:       nop (0r)        
             0x00042486: ff 17:       nop (0r)        
             0x00042488: ff 17:       nop (0r)        
             0x0004248a: ff 17:       nop (0r)        
             0x0004248c: ff 17:       nop (0r)        
             0x0004248e: ff 17:       nop (0r)        
             0x00042490: 00 00:       stw (2rus)      r0, r0[0x0]
             0x00042492: 00 00:       stw (2rus)      r0, r0[0x0]
             0x00042494: 00 00:       stw (2rus)      r0, r0[0x0]
             0x00042496: 00 00:       stw (2rus)      r0, r0[0x0]
             0x00042498: 00 00:       stw (2rus)      r0, r0[0x0]

<RxALow>:
             0x0004249a: 50 97:       endin (2r)      r8, res[r0]

<XUD_OUT_RxTail>:
             0x0004249c: 4c b7:       in (2r)         r11, res[r0]
             0x0004249e: e8 2f:       bru (1r)        r8

<OutTail0>:
             0x000424a0: 61 fe ec af: crc32 (l3r)     r6, r8, r9
             0x000424a4: c0 f1 c0 6a: ldc (lru6)      r11, 0x7000
             0x000424a8: c0 77:       retsp (u6)      0x0
             0x000424aa: ff 17:       nop (0r)        
             0x000424ac: ff 17:       nop (0r)        
             0x000424ae: ff 17:       nop (0r)        

<OutTail1>:
             0x000424b0: be ae:       shr (2rus)      r11, r11, 0x18
             0x000424b2: 6d fe ec af: crc32 (l3r)     r6, r11, r9
             0x000424b6: f4 fa ec 07: stw (l3r)       r11, r1[r4]
             0x000424ba: 02 f2 fe 6a: ldc (lru6)      r11, 0x80be
             0x000424be: c0 77:       retsp (u6)      0x0

<OutTail2>:
             0x000424c0: bd ae:       shr (2rus)      r11, r11, 0x10
             0x000424c2: 6d fe ec af: crc32 (l3r)     r6, r11, r9
             0x000424c6: f4 fa ec 07: stw (l3r)       r11, r1[r4]
             0x000424ca: ff f0 fe 6a: ldc (lru6)      r11, 0x3ffe
             0x000424ce: c0 77:       retsp (u6)      0x0

<OutTail3>:
             0x000424d0: bc ae:       shr (2rus)      r11, r11, 0x8
             0x000424d2: f4 fa ec 07: stw (l3r)       r11, r1[r4]
             0x000424d6: 6d fe ec af: crc32 (l3r)     r6, r11, r9
             0x000424da: cc 5e:       ldw (ru6)       r11, sp[0xc]
             0x000424dc: 99 fc e6 07: crc8 (l4r)      r6, r1, r2, r9
             0x000424e0: c0 77:       retsp (u6)      0x0

<OutTail4>:
             0x000424e2: 14 f0 05 77: bu (lu6)        -0x505 <ERR_EndIn4>
             0x000424e6: ff 17:       nop (0r)        
             0x000424e8: ff 17:       nop (0r)        
             0x000424ea: ff 17:       nop (0r)        
             0x000424ec: ff 17:       nop (0r)        
             0x000424ee: ff 17:       nop (0r)        

<OutTail5>:
             0x000424f0: 14 f0 08 77: bu (lu6)        -0x508 <ERR_EndIn5>

<Pid_Setup>:
             0x000424f4: 20 fd ee 97: inpw (l2rus)    r10, res[r0], 0x8
             0x000424f8: aa ae:       shr (2rus)      r10, r10, 0x18
             0x000424fa: 01 b7:       in (2r)         r4, res[r1]
             0x000424fc: 02 f0 3e 71: bt (lru6)       r4, 0xbe <Pid_Reserved> <Pid_Ack> <Pid_NYet> <Pid_Nyet> <Pid_Data2> <Pid_Split> <Pid_Nak> <Pid_Pre> <Pid_Stall> <Pid_MData> <Pid_Datam> <Pid_Data0> <Pid_Data1> <Pid_Bad> <InvalidToken> <XUD_InvalidToken>
             0x00042500: 76 4d:       ldw (3r)        r3, r5[r10]
             0x00042502: dc 78:       bf (ru6)        r3, 0x1c <SBuffFull>
             0x00042504: 1f 08:       ldw (2rus)      r1, r3[0x3]

<SetupReady>:
<LoadSetupBuffer>:
             0x00042506: 52 d4:       bl (u10)        -0x52 <doRXData>
             0x00042508: ed 07:       clre (0r)       
             0x0004250a: 5b 35:       eq (3r)         r1, r6, r11
             0x0004250c: 02 f0 6b 78: bf (lru6)       r1, 0xab <NextTokenAfterOut>

<ClearStall>:
             0x00042510: 0c f0 ee 62: ldaw (lru6)     r11, dp[0x32e]
             0x00042514: 01 f0 9a 69: ldc (lru6)      r6, 0x5a
             0x00042518: 6e fe ec 07: stw (l3r)       r6, r11[r10]
             0x0004251c: 0c f0 de 62: ldaw (lru6)     r11, dp[0x31e]
             0x00042520: 6e fe ec 07: stw (l3r)       r6, r11[r10]

<SendSetupAck>:
             0x00042524: 03 f0 d2 6a: ldc (lru6)      r11, 0xd2
             0x00042528: 38 fd ed 97: outpw (l2rus)   res[r2], r11, 0x8

<StoreTailData>:
             0x0004252c: c0 6a:       ldc (ru6)       r11, 0x0
             0x0004252e: f6 fd ec 07: stw (l3r)       r11, r5[r10]
             0x00042532: bd 08:       ldw (2rus)      r11, r3[0x1]
             0x00042534: ab af:       out (r2r)       res[r11], r10
             0x00042536: 5c 4f:       outct (rus)     res[r11], 0x0
             0x00042538: 02 f0 15 73: bu (lu6)        0x95 <NextTokenAfterOut>

<SBuffFull>:
             0x0004253c: c0 6a:       ldc (ru6)       r11, 0x0
             0x0004253e: 8a 5e:       ldw (ru6)       r10, sp[0xa]
             0x00042540: ae b7:       in (2r)         r11, res[r10]
             0x00042542: 5c 97:       endin (2r)      r11, res[r0]
             0x00042544: 4c b7:       in (2r)         r11, res[r0]
             0x00042546: 02 f0 0e 73: bu (lu6)        0x8e <NextTokenAfterOut>

<BadDataCrcSetup>:
             0x0004254a: 04 90:       add (2rus)      r0, r1, 0x0
             0x0004254c: 01 f0 3e d5: bl (lu10)       -0x53e <ERR_BadCrc>
             0x00042550: 75 4f:       outct (rus)     res[r5], 0x9
             0x00042552: ed b6:       in (2r)         r11, res[r5]
             0x00042554: 02 f0 02 73: bu (lu6)        0x82 <NextToken>

<Pid_Sof>:
             0x00042558: 20 fd ee 97: inpw (l2rus)    r10, res[r0], 0x8
             0x0004255c: aa ae:       shr (2rus)      r10, r10, 0x18
             0x0004255e: 4d b7:       in (2r)         r11, res[r1]
             0x00042560: 02 f0 cc 72: bt (lru6)       r11, 0x8c <Pid_Reserved> <Pid_Ack> <Pid_NYet> <Pid_Nyet> <Pid_Data2> <Pid_Split> <Pid_Nak> <Pid_Pre> <Pid_Stall> <Pid_MData> <Pid_Datam> <Pid_Data0> <Pid_Data1> <Pid_Bad> <InvalidToken> <XUD_InvalidToken>
             0x00042564: 03 7b:       clrsr (u6)      0x3
             0x00042566: e9 5e:       ldw (ru6)       r11, sp[0x29]
             0x00042568: ab af:       out (r2r)       res[r11], r10
             0x0004256a: 8e 5e:       ldw (ru6)       r10, sp[0xe]
             0x0004256c: 81 ea:       setc (ru6)      res[r10], 0x1
             0x0004256e: 0d 5e:       ldw (ru6)       r8, sp[0xd]
             0x00042570: ae b7:       in (2r)         r11, res[r10]
             0x00042572: bc 16:       add (3r)        r11, r11, r8
             0x00042574: be 17:       setd (r2r)      res[r10], r11
             0x00042576: 89 ea:       setc (ru6)      res[r10], 0x9
             0x00042578: 43 7b:       setsr (u6)      0x3
             0x0004257a: 01 f0 37 73: bu (lu6)        0x77 <NextTokenAfterInNak> <Loop_BadPid> <NextTokenAfterPing>
             0x0004257e: ff 17:       nop (0r)        

<Pid_Sof_NoChan>:
             0x00042580: 20 fd ee 97: inpw (l2rus)    r10, res[r0], 0x8
             0x00042584: aa ae:       shr (2rus)      r10, r10, 0x18
             0x00042586: 4d b7:       in (2r)         r11, res[r1]
             0x00042588: 01 f0 f8 72: bt (lru6)       r11, 0x78 <Pid_Reserved> <Pid_Ack> <Pid_NYet> <Pid_Nyet> <Pid_Data2> <Pid_Split> <Pid_Nak> <Pid_Pre> <Pid_Stall> <Pid_MData> <Pid_Datam> <Pid_Data0> <Pid_Data1> <Pid_Bad> <InvalidToken> <XUD_InvalidToken>
             0x0004258c: 03 7b:       clrsr (u6)      0x3
             0x0004258e: 8e 5e:       ldw (ru6)       r10, sp[0xe]
             0x00042590: 81 ea:       setc (ru6)      res[r10], 0x1
             0x00042592: 0d 5e:       ldw (ru6)       r8, sp[0xd]
             0x00042594: ae b7:       in (2r)         r11, res[r10]
             0x00042596: bc 16:       add (3r)        r11, r11, r8
             0x00042598: be 17:       setd (r2r)      res[r10], r11
             0x0004259a: 0d 5e:       ldw (ru6)       r8, sp[0xd]
             0x0004259c: 89 ea:       setc (ru6)      res[r10], 0x9
             0x0004259e: 43 7b:       setsr (u6)      0x3
             0x000425a0: 01 f0 24 73: bu (lu6)        0x64 <NextTokenAfterInNak> <Loop_BadPid> <NextTokenAfterPing>

<XUD_LLD_IoLoop>:
<utmi_io>:
             0x000425a4: 60 77:       entsp (u6)      0x20
             0x000425a6: 01 55:       stw (ru6)       r4, sp[0x1]
             0x000425a8: 42 55:       stw (ru6)       r5, sp[0x2]
             0x000425aa: 83 55:       stw (ru6)       r6, sp[0x3]
             0x000425ac: c4 55:       stw (ru6)       r7, sp[0x4]
             0x000425ae: 05 56:       stw (ru6)       r8, sp[0x5]
             0x000425b0: 46 56:       stw (ru6)       r9, sp[0x6]
             0x000425b2: 87 56:       stw (ru6)       r10, sp[0x7]

<SaveStackPointer>:
             0x000425b4: c0 66:       ldaw (ru6)      r11, sp[0x0]
             0x000425b6: 0d f0 c6 52: stw (lru6)      r11, dp[0x346]
             0x000425ba: 00 f0 e0 6e: ldw (lru6)      r11, cp[0x20]
             0x000425be: cd 56:       stw (ru6)       r11, sp[0xd]

<ConfigRxDEventVector>:
             0x000425c0: 02 e8:       setc (ru6)      res[r0], 0x2
             0x000425c2: 50 dd:       ldap (u10)      r11, -0x150 <TxHandShakeReceived> <XUD_IN_RxAck>
             0x000425c4: f0 47:       setv (1r)       res[r0], r11

<ConfigRxA>:
             0x000425c6: 51 e8:       setc (ru6)      res[r1], 0x11
             0x000425c8: 42 e8:       setc (ru6)      res[r1], 0x2
             0x000425ca: c0 6a:       ldc (ru6)       r11, 0x0
             0x000425cc: 5d 17:       setd (r2r)      res[r1], r11
             0x000425ce: 9b dc:       ldap (u10)      r11, -0x9b <RxALow>
             0x000425d0: f1 47:       setv (1r)       res[r1], r11
             0x000425d2: f1 07:       eeu (1r)        res[r1]

<ConfigValidToken>:
             0x000425d4: 00 f0 84 5a: ldw (lru6)      r10, dp[0x4]
             0x000425d8: 81 ea:       setc (ru6)      res[r10], 0x1
             0x000425da: 60 dd:       ldap (u10)      r11, -0x160 <TxHandshakeTimeOut>
             0x000425dc: fa 47:       setv (1r)       res[r10], r11

<SetupOutTimer>:
             0x000425de: 49 87:       getr (rus)      r10, 0x1
             0x000425e0: ea 4f:       ecallf (1r)     r10
             0x000425e2: a3 de:       ldap (u10)      r11, -0x2a3 <OutDataTimeOut>
             0x000425e4: fa 47:       setv (1r)       res[r10], r11
             0x000425e6: 89 ea:       setc (ru6)      res[r10], 0x9
             0x000425e8: 89 56:       stw (ru6)       r10, sp[0x9]

<SetupUsbTestMode>:
             0x000425ea: 05 f0 4f 62: ldaw (lru6)     r9, dp[0x14f]
             0x000425ee: 24 0a:       ldw (2rus)      r10, r9[0x0]
             0x000425f0: 8a ea:       setc (ru6)      res[r10], 0xa
             0x000425f2: fa 47:       setv (1r)       res[r10], r11
             0x000425f4: fa 07:       eeu (1r)        res[r10]
             0x000425f6: 90 6a:       ldc (ru6)       r10, 0x10
             0x000425f8: a6 4e:       ldw (3r)        r10, r9[r10]
             0x000425fa: 8a ea:       setc (ru6)      res[r10], 0xa
             0x000425fc: fa 47:       setv (1r)       res[r10], r11
             0x000425fe: fa 07:       eeu (1r)        res[r10]

<PortsOnStack>:
             0x00042600: 00 f0 c4 5a: ldw (lru6)      r11, dp[0x4]
             0x00042604: ca 56:       stw (ru6)       r11, sp[0xa]
             0x00042606: 00 f0 c4 5a: ldw (lru6)      r11, dp[0x4]
             0x0004260a: d5 56:       stw (ru6)       r11, sp[0x15]
             0x0004260c: ff f0 fe 6a: ldc (lru6)      r11, 0x3ffe
             0x00042610: cc 56:       stw (ru6)       r11, sp[0xc]
             0x00042612: e7 5e:       ldw (ru6)       r11, sp[0x27]
             0x00042614: 0d f0 c4 52: stw (lru6)      r11, dp[0x344]

<ConfigSofJump>:
             0x00042618: e9 5e:       ldw (ru6)       r11, sp[0x29]
             0x0004261a: c4 72:       bt (ru6)        r11, 0x4 <ConfigSofJump_Done> <ConfigRxErrEventVector>
             0x0004261c: 4f dc:       ldap (u10)      r11, -0x4f <Pid_Sof_NoChan>
             0x0004261e: 00 f0 8c 62: ldaw (lru6)     r10, dp[0xc]
             0x00042622: 79 04:       stw (2rus)      r11, r10[0x5]

<ConfigSofJump_Done>:
<ConfigRxErrEventVector>:
             0x00042624: d1 e8:       setc (ru6)      res[r3], 0x11
             0x00042626: ca e8:       setc (ru6)      res[r3], 0xa
             0x00042628: e7 de:       ldap (u10)      r11, -0x2e7 <Err_RxErr>
             0x0004262a: f3 47:       setv (1r)       res[r3], r11
             0x0004262c: c1 6a:       ldc (ru6)       r11, 0x1
             0x0004262e: 5f 17:       setd (r2r)      res[r3], r11
             0x00042630: cf 54:       stw (ru6)       r3, sp[0xf]
             0x00042632: f3 07:       eeu (1r)        res[r3]

<SetupSuspendResetTimer>:
             0x00042634: 49 87:       getr (rus)      r10, 0x1
             0x00042636: ea 4f:       ecallf (1r)     r10
             0x00042638: 8e 56:       stw (ru6)       r10, sp[0xe]
             0x0004263a: 00 f0 5d df: ldap (lu10)     r11, -0x35d <ResetIntHandler>
             0x0004263e: fa 47:       setv (1r)       res[r10], r11
             0x00042640: 81 ea:       setc (ru6)      res[r10], 0x1
             0x00042642: ae b7:       in (2r)         r11, res[r10]
             0x00042644: 00 f0 60 6e: ldw (lru6)      r9, cp[0x20]
             0x00042648: bd 16:       add (3r)        r11, r11, r9
             0x0004264a: be 17:       setd (r2r)      res[r10], r11
             0x0004264c: 89 ea:       setc (ru6)      res[r10], 0x9
             0x0004264e: 8a ea:       setc (ru6)      res[r10], 0xa
             0x00042650: fa 07:       eeu (1r)        res[r10]
             0x00042652: 17 e8:       setc (ru6)      res[r0], 0x17
             0x00042654: ed 07:       clre (0r)       
             0x00042656: 42 7b:       setsr (u6)      0x2
             0x00042658: 01 73:       bu (u6)         0x1 <NextToken>
             0x0004265a: ff 17:       nop (0r)        

<NextToken>:
             0x0004265c: 80 f2 41 6a: ldc (lru6)      r9, 0xa001
             0x00042660: 67 5d:       ldw (ru6)       r5, sp[0x27]
             0x00042662: cc f3 f5 69: ldc (lru6)      r7, 0xf335

<NextTokenAfterOut>:
             0x00042666: cc f0 b4 69: ldc (lru6)      r6, 0x3334
             0x0004266a: 55 5c:       ldw (ru6)       r1, sp[0x15]

<NextTokenAfterInNak>:
<Loop_BadPid>:
<NextTokenAfterPing>:
             0x0004266c: 41 7b:       setsr (u6)      0x1
             0x0004266e: 00 f0 8c 62: ldaw (lru6)     r10, dp[0xc]

<XUD_TokenRx_Pid>:
             0x00042672: 30 fd ee 97: inpw (l2rus)    r11, res[r0], 0x8
             0x00042676: be ae:       shr (2rus)      r11, r11, 0x18
             0x00042678: ab 4e:       ldw (3r)        r10, r10[r11]

<BranchOnTokenPid>:
             0x0004267a: fa 27:       bau (1r)        r10

<Pid_Reserved>:
<Pid_Ack>:
<Pid_NYet>:
<Pid_Nyet>:
<Pid_Data2>:
<Pid_Split>:
<Pid_Nak>:
<Pid_Pre>:
<Pid_Stall>:
<Pid_MData>:
<Pid_Datam>:
<Pid_Data0>:
<Pid_Data1>:
<Pid_Bad>:
<InvalidToken>:
<XUD_InvalidToken>:
             0x0004267c: 8a 5e:       ldw (ru6)       r10, sp[0xa]

<waitforRXALow>:
<XUD_InvalidTok_waitforRXALow>:
             0x0004267e: ae b7:       in (2r)         r11, res[r10]
             0x00042680: c2 76:       bt (ru6)        r11, -0x2 <waitforRXALow> <XUD_InvalidTok_waitforRXALow>
             0x00042682: 17 e8:       setc (ru6)      res[r0], 0x17
             0x00042684: 0d 77:       bu (u6)         -0xd <NextTokenAfterInNak> <Loop_BadPid> <NextTokenAfterPing>
             0x00042686: ff 17:       nop (0r)        

<Return>:
             0x00042688: c9 5e:       ldw (ru6)       r11, sp[0x9]
             0x0004268a: eb 17:       freer (1r)      res[r11]
             0x0004268c: ce 5e:       ldw (ru6)       r11, sp[0xe]
             0x0004268e: eb 17:       freer (1r)      res[r11]
             0x00042690: 01 5d:       ldw (ru6)       r4, sp[0x1]
             0x00042692: 42 5d:       ldw (ru6)       r5, sp[0x2]
             0x00042694: 83 5d:       ldw (ru6)       r6, sp[0x3]
             0x00042696: c4 5d:       ldw (ru6)       r7, sp[0x4]
             0x00042698: 05 5e:       ldw (ru6)       r8, sp[0x5]
             0x0004269a: 46 5e:       ldw (ru6)       r9, sp[0x6]
             0x0004269c: 87 5e:       ldw (ru6)       r10, sp[0x7]
             0x0004269e: e0 77:       retsp (u6)      0x20

<XUD_GetDone>:
             0x000426a0: 00 f0 40 77: entsp (lu6)     0x0
             0x000426a4: 0d f0 02 58: ldw (lru6)      r0, dp[0x342]
             0x000426a8: c0 77:       retsp (u6)      0x0
             0x000426aa: 00 00:       stw (2rus)      r0, r0[0x0]

<XUD_DeviceAttachHS>:
             0x000426ac: 00 f0 4c 77: entsp (lu6)     0xc
             0x000426b0: 06 f9 ec f7: std (l2rus)     r5, r4, sp[0x2]
             0x000426b4: 2f f9 ec f7: std (l2rus)     r7, r6, sp[0x3]
             0x000426b8: 44 fc ec f7: std (l2rus)     r9, r8, sp[0x4]
             0x000426bc: 8a 56:       stw (ru6)       r10, sp[0xa]
             0x000426be: 6c 90:       add (2rus)      r6, r3, 0x0
             0x000426c0: 88 90:       add (2rus)      r8, r2, 0x0
             0x000426c2: 42 54:       stw (ru6)       r1, sp[0x2]
             0x000426c4: 40 90:       add (2rus)      r4, r0, 0x0
             0x000426c6: 4e 5e:       ldw (ru6)       r9, sp[0xe]
             0x000426c8: 8d 5e:       ldw (ru6)       r10, sp[0xd]
             0x000426ca: 17 ea:       setc (ru6)      res[r8], 0x17
             0x000426cc: 1d a7:       mkmsk (rus)     r7, 0x1
             0x000426ce: 8c 68:       ldc (ru6)       r2, 0xc
             0x000426d0: ca 68:       ldc (ru6)       r3, 0xa
             0x000426d2: dc 90:       add (2rus)      r1, r7, 0x0
             0x000426d4: 01 f0 02 d5: bl (lu10)       -0x502 <write_periph_word>
             0x000426d8: 32 68:       ldc (ru6)       r0, 0x32
             0x000426da: 00 f0 b9 d7: bl (lu10)       -0x3b9 <XUD_Sup_Delay>
             0x000426de: e1 8f:       gettime (1r)    r1
             0x000426e0: ee 17:       get (0r)        r11, id
             0x000426e2: 00 f0 04 60: ldaw (lru6)     r0, dp[0x4]
             0x000426e6: 83 4c:       ldw (3r)        r0, r0[r11]
             0x000426e8: 9c f0 90 68: ldc (lru6)      r2, 0x2710
             0x000426ec: 16 10:       add (3r)        r1, r1, r2
             0x000426ee: d4 16:       setd (r2r)      res[r0], r1
             0x000426f0: 09 e8:       setc (ru6)      res[r0], 0x9
             0x000426f2: c4 b6:       in (2r)         r1, res[r0]
             0x000426f4: fa f0 80 68: ldc (lru6)      r2, 0x3e80
             0x000426f8: 40 68:       ldc (ru6)       r1, 0x0
.label175    0x000426fa: 24 af:       out (r2r)       res[r8], r1
             0x000426fc: 29 98:       sub (2rus)      r2, r2, 0x1
             0x000426fe: 83 74:       bt (ru6)        r2, -0x3 <.label175>
             0x00042700: 36 17:       setd (r2r)      res[r10], r1
             0x00042702: 91 ea:       setc (ru6)      res[r10], 0x11
             0x00042704: 2a b7:       in (2r)         r2, res[r10]
             0x00042706: e2 8f:       gettime (1r)    r2
             0x00042708: 00 f0 e6 6c: ldw (lru6)      r3, cp[0x26]
             0x0004270c: 2b 10:       add (3r)        r2, r2, r3
             0x0004270e: d8 16:       setd (r2r)      res[r0], r2
             0x00042710: 09 e8:       setc (ru6)      res[r0], 0x9
             0x00042712: 36 d8:       ldap (u10)      r11, 0x36 <.label176>
             0x00042714: f0 47:       setv (1r)       res[r0], r11
             0x00042716: 04 f0 ac 68: ldc (lru6)      r2, 0x12c
             0x0004271a: 34 90:       add (2rus)      r3, r1, 0x0
.label183    0x0004271c: 4c 91:       add (2rus)      r8, r7, 0x0
             0x0004271e: 01 73:       bu (u6)         0x1 <.label177>
.label182    0x00042720: 0c 92:       add (2rus)      r8, r11, 0x0
.label177    0x00042722: ed 07:       clre (0r)       
             0x00042724: f0 07:       eeu (1r)        res[r0]
             0x00042726: 06 7a:       bf (ru6)        r8, 0x6 <.label178>
             0x00042728: 7e 17:       setd (r2r)      res[r10], r7
             0x0004272a: 91 ea:       setc (ru6)      res[r10], 0x11
             0x0004272c: 11 d8:       ldap (u10)      r11, 0x11 <.label179>
             0x0004272e: fa 47:       setv (1r)       res[r10], r11
             0x00042730: fa 07:       eeu (1r)        res[r10]
             0x00042732: ec 07:       waiteu (0r)     
.label178    0x00042734: 96 17:       setd (r2r)      res[r6], r1
             0x00042736: 91 e9:       setc (ru6)      res[r6], 0x11
             0x00042738: 03 d8:       ldap (u10)      r11, 0x3 <.label180>
             0x0004273a: f6 47:       setv (1r)       res[r6], r11
             0x0004273c: f6 07:       eeu (1r)        res[r6]
             0x0004273e: ec 07:       waiteu (0r)     
.label180    0x00042740: ee 3e:       getts (2r)      r11, res[r6]
             0x00042742: c6 b7:       in (2r)         r5, res[r6]
             0x00042744: 81 e9:       setc (ru6)      res[r6], 0x1
             0x00042746: 3e 12:       add (3r)        r11, r11, r2
             0x00042748: fe 3e:       setpt (r2r)     res[r6], r11
             0x0004274a: ee b6:       in (2r)         r11, res[r6]
             0x0004274c: d6 76:       bt (ru6)        r11, -0x16 <.label177>
             0x0004274e: 0a 73:       bu (u6)         0xa <.label181>
.label179    0x00042750: ae 3f:       getts (2r)      r11, res[r10]
             0x00042752: 66 b7:       in (2r)         r5, res[r10]
             0x00042754: 81 ea:       setc (ru6)      res[r10], 0x1
             0x00042756: 3e 12:       add (3r)        r11, r11, r2
             0x00042758: be 3f:       setpt (r2r)     res[r10], r11
             0x0004275a: 66 b7:       in (2r)         r5, res[r10]
             0x0004275c: b4 90:       add (2rus)      r11, r1, 0x0
             0x0004275e: 60 75:       bt (ru6)        r5, -0x20 <.label182>
             0x00042760: 30 92:       add (2rus)      r11, r8, 0x0
             0x00042762: 22 77:       bu (u6)         -0x22 <.label182>
.label181    0x00042764: 3d 90:       add (2rus)      r3, r3, 0x1
             0x00042766: bf b0:       eq (2rus)       r11, r3, 0x3
             0x00042768: e7 7e:       bf (ru6)        r11, -0x27 <.label183>
             0x0004276a: 19 a7:       mkmsk (rus)     r6, 0x1
             0x0004276c: 8c 68:       ldc (ru6)       r2, 0xc
             0x0004276e: c0 68:       ldc (ru6)       r3, 0x0
             0x00042770: c0 90:       add (2rus)      r0, r4, 0x0
             0x00042772: d8 90:       add (2rus)      r1, r6, 0x0
             0x00042774: 01 f0 52 d5: bl (lu10)       -0x552 <write_periph_word>
             0x00042778: 79 17:       setd (r2r)      res[r9], r6
             0x0004277a: 51 ea:       setc (ru6)      res[r9], 0x11
             0x0004277c: 21 b7:       in (2r)         r0, res[r9]
             0x0004277e: 2b 73:       bu (u6)         0x2b <.label184>
.label176    0x00042780: c0 b6:       in (2r)         r0, res[r0]
             0x00042782: d5 a6:       mkmsk (rus)     r1, 0x1
             0x00042784: 8c 68:       ldc (ru6)       r2, 0xc
             0x00042786: de a6:       mkmsk (rus)     r3, 0x2
             0x00042788: c0 90:       add (2rus)      r0, r4, 0x0
             0x0004278a: 01 f0 5d d5: bl (lu10)       -0x55d <write_periph_word>
             0x0004278e: 41 ea:       setc (ru6)      res[r9], 0x1
             0x00042790: 21 b7:       in (2r)         r0, res[r9]
             0x00042792: 80 69:       ldc (ru6)       r6, 0x0
             0x00042794: 20 78:       bf (ru6)        r0, 0x20 <.label184>
             0x00042796: 02 5c:       ldw (ru6)       r0, sp[0x2]
             0x00042798: 01 b0:       eq (2rus)       r0, r0, 0x1
             0x0004279a: 12 78:       bf (ru6)        r0, 0x12 <.label185>
             0x0004279c: 15 a7:       mkmsk (rus)     r5, 0x1
             0x0004279e: d4 69:       ldc (ru6)       r7, 0x14
             0x000427a0: 03 66:       ldaw (ru6)      r8, sp[0x3]
             0x000427a2: 80 69:       ldc (ru6)       r6, 0x0
             0x000427a4: a0 6a:       ldc (ru6)       r10, 0x20
.label187    0x000427a6: c0 90:       add (2rus)      r0, r4, 0x0
             0x000427a8: d4 90:       add (2rus)      r1, r5, 0x0
             0x000427aa: ec 90:       add (2rus)      r2, r7, 0x0
             0x000427ac: b0 91:       add (2rus)      r3, r8, 0x0
             0x000427ae: 01 f0 65 d5: bl (lu10)       -0x565 <read_periph_word>
             0x000427b2: c2 8b:       ld8u (3r)       r0, r8[r6]
             0x000427b4: 82 3c:       and (3r)        r0, r0, r10
             0x000427b6: 08 78:       bf (ru6)        r0, 0x8 <.label186>
             0x000427b8: 41 ea:       setc (ru6)      res[r9], 0x1
             0x000427ba: 21 b7:       in (2r)         r0, res[r9]
             0x000427bc: 0c 74:       bt (ru6)        r0, -0xc <.label187>
             0x000427be: 0b 73:       bu (u6)         0xb <.label184>
.label185    0x000427c0: 41 ea:       setc (ru6)      res[r9], 0x1
             0x000427c2: 21 b7:       in (2r)         r0, res[r9]
             0x000427c4: 03 74:       bt (ru6)        r0, -0x3 <.label185>
             0x000427c6: 07 73:       bu (u6)         0x7 <.label184>
.label186    0x000427c8: d5 a6:       mkmsk (rus)     r1, 0x1
             0x000427ca: 8c 68:       ldc (ru6)       r2, 0xc
             0x000427cc: c4 68:       ldc (ru6)       r3, 0x4
             0x000427ce: c0 90:       add (2rus)      r0, r4, 0x0
             0x000427d0: 01 f0 80 d5: bl (lu10)       -0x580 <write_periph_word>
             0x000427d4: 18 a7:       mkmsk (rus)     r6, 0x20
.label184    0x000427d6: c8 90:       add (2rus)      r0, r6, 0x0
             0x000427d8: 8a 5e:       ldw (ru6)       r10, sp[0xa]
             0x000427da: 44 fc ec ef: ldd (l2rus)     r9, r8, sp[0x4]
             0x000427de: 2f f9 ec ef: ldd (l2rus)     r7, r6, sp[0x3]
             0x000427e2: 06 f9 ec ef: ldd (l2rus)     r5, r4, sp[0x2]
             0x000427e6: cc 77:       retsp (u6)      0xc

<__start_core>:
             0x000427e8: 00 f0 40 77: entsp (lu6)     0x0
             0x000427ec: 40 90:       add (2rus)      r4, r0, 0x0
             0x000427ee: 34 90:       add (2rus)      r3, r1, 0x0
             0x000427f0: 02 f0 18 d7: bl (lu10)       -0xb18 <__init_threadlocal_timer>
             0x000427f4: c0 90:       add (2rus)      r0, r4, 0x0
             0x000427f6: e3 27:       bla (1r)        r3
             0x000427f8: 02 f0 12 d7: bl (lu10)       -0xb12 <__free_threadlocal_timer>
             0x000427fc: ee 07:       ssync (0r)      
             0x000427fe: 00 00:       stw (2rus)      r0, r0[0x0]

<strnlen>:
             0x00042800: 00 f0 40 77: entsp (lu6)     0x0
             0x00042804: 20 90:       add (2rus)      r2, r0, 0x0
             0x00042806: 47 78:       bf (ru6)        r1, 0x7 <.label188>
             0x00042808: c0 68:       ldc (ru6)       r3, 0x0
             0x0004280a: 20 90:       add (2rus)      r2, r0, 0x0
.label189    0x0004280c: bb 88:       ld8u (3r)       r11, r2[r3]
             0x0004280e: c3 7a:       bf (ru6)        r11, 0x3 <.label188>
             0x00042810: 15 98:       sub (2rus)      r1, r1, 0x1
             0x00042812: 29 90:       add (2rus)      r2, r2, 0x1
             0x00042814: 45 74:       bt (ru6)        r1, -0x5 <.label189>
.label188    0x00042816: 08 18:       sub (3r)        r0, r2, r0
             0x00042818: c0 77:       retsp (u6)      0x0
             0x0004281a: 00 00:       stw (2rus)      r0, r0[0x0]

<_write_periph_32_on_chanend>:
             0x0004281c: 00 f0 40 77: entsp (lu6)     0x0
             0x00042820: 82 77:       extsp (u6)      0x2
             0x00042822: 00 55:       stw (ru6)       r4, sp[0x0]
             0x00042824: e4 6a:       ldc (ru6)       r11, 0x24
             0x00042826: 23 4f:       outct (2r)      res[r0], r11
             0x00042828: 45 78:       bf (ru6)        r1, 0x5 <.label190>
             0x0004282a: b0 90:       add (2rus)      r11, r0, 0x0
             0x0004282c: 00 f0 23 6d: ldw (lru6)      r4, cp[0x23]
             0x00042830: 7c 3c:       and (3r)        r11, r11, r4
             0x00042832: 02 73:       bu (u6)         0x2 <.label191>
.label190    0x00042834: fc f3 c0 6a: ldc (lru6)      r11, 0xff00
.label191    0x00042838: ae 41:       or (3r)         r2, r11, r2
             0x0004283a: c8 ae:       out (r2r)       res[r0], r2
             0x0004283c: 2e a0:       shl (2rus)      r2, r3, 0x2
             0x0004283e: d8 0e:       outt (r2r)      res[r0], r2
             0x00042840: c7 78:       bf (ru6)        r3, 0x7 <.label192>
             0x00042842: 83 5c:       ldw (ru6)       r2, sp[0x3]
             0x00042844: c0 6a:       ldc (ru6)       r11, 0x0
.label193    0x00042846: cb 4c:       ldw (3r)        r4, r2[r11]
             0x00042848: 00 af:       out (r2r)       res[r0], r4
             0x0004284a: 3d 92:       add (2rus)      r11, r11, 0x1
             0x0004284c: cf c9:       lsu (3r)        r4, r11, r3
             0x0004284e: 05 75:       bt (ru6)        r4, -0x5 <.label193>
.label192    0x00042850: d1 4e:       outct (rus)     res[r0], 0x1
             0x00042852: 44 78:       bf (ru6)        r1, 0x4 <.label194>
             0x00042854: d4 86:       inct (2r)       r1, res[r0]
             0x00042856: d1 ce:       chkct (rus)     res[r0], 0x1
             0x00042858: 07 b0:       eq (2rus)       r0, r1, 0x3
             0x0004285a: 01 73:       bu (u6)         0x1 <.label195>
.label194    0x0004285c: d1 a6:       mkmsk (rus)     r0, 0x1
.label195    0x0004285e: 00 5d:       ldw (ru6)       r4, sp[0x0]
             0x00042860: 82 67:       ldaw (ru6)      sp, sp[0x2]
             0x00042862: c0 77:       retsp (u6)      0x0

<__set_port_in>:
             0x00042864: 00 f0 40 77: entsp (lu6)     0x0
             0x00042868: 00 f0 46 68: ldc (lru6)      r1, 0x6
             0x0004286c: d4 fe ec 0f: setclk (lr2r)   res[r0], r1
             0x00042870: c0 f0 47 68: ldc (lru6)      r1, 0x3007
             0x00042874: d1 fe ec 2f: setc (l2r)      res[r0], r1
             0x00042878: 01 e8:       setc (ru6)      res[r0], 0x1
             0x0004287a: c0 b6:       in (2r)         r0, res[r0]
             0x0004287c: c0 77:       retsp (u6)      0x0
             0x0004287e: 00 00:       stw (2rus)      r0, r0[0x0]

<__set_port_out>:
             0x00042880: 00 f0 40 77: entsp (lu6)     0x0
             0x00042884: 00 f0 86 68: ldc (lru6)      r2, 0x6
             0x00042888: d8 fe ec 0f: setclk (lr2r)   res[r0], r2
             0x0004288c: c0 f0 87 68: ldc (lru6)      r2, 0x3007
             0x00042890: d2 fe ec 2f: setc (l2r)      res[r0], r2
             0x00042894: a1 ac:       shr (2rus)      r2, r0, 0x10
             0x00042896: 9a 47:       zext (rus)      r2, 0x6
             0x00042898: c6 46:       zext (2r)       r1, r2
             0x0004289a: 36 20:       shl (3r)        r3, r1, r2
             0x0004289c: c4 78:       bf (ru6)        r3, 0x4 <do_output>

<loop>:
             0x0004289e: 17 40:       or (3r)         r1, r1, r3
             0x000428a0: 29 a0:       shl (2rus)      r2, r2, 0x1
             0x000428a2: 36 20:       shl (3r)        r3, r1, r2
             0x000428a4: c4 74:       bt (ru6)        r3, -0x4 <loop>

<do_output>:
             0x000428a6: c4 ae:       out (r2r)       res[r0], r1
             0x000428a8: f0 87:       syncr (1r)      res[r0]
             0x000428aa: c0 77:       retsp (u6)      0x0

Disassembly of section .init (size: 28)

<_init>:
.label2      0x000428ac: 00 f0 42 77: entsp (lu6)     0x2
             0x000428b0: 01 f0 28 d6: bl (lu10)       -0x628 <.label196>
             0x000428b4: 00 f0 1e 6d: ldw (lru6)      r4, cp[0x1e]
             0x000428b8: 06 79:       bf (ru6)        r4, 0x6 <do_ctors_end>
             0x000428ba: 00 f0 58 6d: ldw (lru6)      r5, cp[0x18]

<do_ctors_loop>:
             0x000428be: 01 99:       sub (2rus)      r4, r4, 0x1
             0x000428c0: 04 4b:       ldw (3r)        r0, r5[r4]
             0x000428c2: e0 27:       bla (1r)        r0
             0x000428c4: 04 75:       bt (ru6)        r4, -0x4 <do_ctors_loop>

<do_ctors_end>:
             0x000428c6: c2 77:       retsp (u6)      0x2

Disassembly of section .fini (size: 48)

<_fini>:
.label98     0x000428c8: 00 f0 42 77: entsp (lu6)     0x2
             0x000428cc: 84 77:       extsp (u6)      0x4
             0x000428ce: 01 55:       stw (ru6)       r4, sp[0x1]
             0x000428d0: 42 55:       stw (ru6)       r5, sp[0x2]
             0x000428d2: 83 55:       stw (ru6)       r6, sp[0x3]
             0x000428d4: 00 f0 9d 6d: ldw (lru6)      r6, cp[0x1d]
             0x000428d8: 88 79:       bf (ru6)        r6, 0x8 <do_dtors_end>
             0x000428da: 00 69:       ldc (ru6)       r4, 0x0
             0x000428dc: 00 f0 59 6d: ldw (lru6)      r5, cp[0x19]

<do_dtors_loop>:
             0x000428e0: 04 4b:       ldw (3r)        r0, r5[r4]
             0x000428e2: e0 27:       bla (1r)        r0
             0x000428e4: 01 91:       add (2rus)      r4, r4, 0x1
             0x000428e6: b2 cb:       lsu (3r)        r11, r4, r6
             0x000428e8: c5 76:       bt (ru6)        r11, -0x5 <do_dtors_loop>

<do_dtors_end>:
             0x000428ea: 02 f0 8b d7: bl (lu10)       -0xb8b <.label197>
             0x000428ee: 01 5d:       ldw (ru6)       r4, sp[0x1]
             0x000428f0: 42 5d:       ldw (ru6)       r5, sp[0x2]
             0x000428f2: 83 5d:       ldw (ru6)       r6, sp[0x3]
             0x000428f4: 84 67:       ldaw (ru6)      sp, sp[0x4]
             0x000428f6: c2 77:       retsp (u6)      0x2

Loadable 2 for tile[1] (node "0", tile 1):

Disassembly of section .text (size: 704)

<_start>:
             0x00040000: 00 f0 40 77: entsp (lu6)     0x0
             0x00040004: 4b 68:       ldc (ru6)       r1, 0xb
             0x00040006: d1 fe ec 17: get (l2r)       r0, ps[r1]
             0x0004000a: 04 f0 8b 68: ldc (lru6)      r2, 0x10b
             0x0004000e: c2 fe ec 1f: set (lr2r)      ps[r2], r0
             0x00040012: c3 86:       getr (rus)      r0, 0x3
             0x00040014: 79 d8:       ldap (u10)      r11, 0x79 <_InitChildThread>
             0x00040016: 02 73:       bu (u6)         0x2 <.label0>
.label1      0x00040018: 5d ff ec 07: init (l2r)      t[r1]:pc, r11
.label0      0x0004001c: d4 06:       getst (2r)      r1, res[r0]
             0x0004001e: 44 74:       bt (ru6)        r1, -0x4 <.label1>
             0x00040020: f0 1f:       msync (1r)      res[r0]
             0x00040022: 74 d0:       bl (u10)        0x74 <_SetupThread>
             0x00040024: 00 f0 8d 6f: ldw (lru6)      sp, cp[0xd]
             0x00040028: f0 17:       mjoin (1r)      res[r0]
             0x0004002a: e0 17:       freer (1r)      res[r0]
             0x0004002c: 00 f0 08 60: ldaw (lru6)     r0, dp[0x8]
             0x00040030: 40 68:       ldc (ru6)       r1, 0x0
             0x00040032: 00 f0 8e 6c: ldw (lru6)      r2, cp[0xe]
             0x00040036: 00 f0 e9 d0: bl (lu10)       0xe9 <memset>
             0x0004003a: 00 f0 0a 6c: ldw (lru6)      r0, cp[0xa]
             0x0004003e: 40 68:       ldc (ru6)       r1, 0x0
             0x00040040: 00 f0 8f 6c: ldw (lru6)      r2, cp[0xf]
             0x00040044: 00 f0 e2 d0: bl (lu10)       0xe2 <memset>
             0x00040048: 00 f0 e4 d0: bl (lu10)       0xe4 <__init_threadlocal_timer>
             0x0004004c: 00 f0 38 d1: bl (lu10)       0x138 <.label2>
             0x00040050: 00 f0 c6 6a: ldc (lru6)      r11, 0x6
             0x00040054: c8 ea:       setc (ru6)      res[r11], 0x8
             0x00040056: cf ea:       setc (ru6)      res[r11], 0xf
             0x00040058: 00 68:       ldc (ru6)       r0, 0x0
             0x0004005a: 01 54:       stw (ru6)       r0, sp[0x1]
             0x0004005c: 00 f0 40 68: ldc (lru6)      r1, 0x0
             0x00040060: 48 78:       bf (ru6)        r1, 0x8 <.label3>
             0x00040062: 01 64:       ldaw (ru6)      r0, sp[0x1]
             0x00040064: 00 f0 ac d0: bl (lu10)       0xac <_get_cmdline>
             0x00040068: b0 f8 ec 97: ashr (l2rus)    r11, r0, 0x20
             0x0004006c: c2 7a:       bf (ru6)        r11, 0x2 <.label3>
             0x0004006e: 01 90:       add (2rus)      r0, r0, 0x1
             0x00040070: f0 4f:       ecallt (1r)     r0
.label3      0x00040072: 41 64:       ldaw (ru6)      r1, sp[0x1]
             0x00040074: 00 f0 5c d0: bl (lu10)       0x5c <main>
             0x00040078: 02 70:       bt (ru6)        r0, 0x2 <.label4>
             0x0004007a: 00 f0 a9 d0: bl (lu10)       0xa9 <__libc_done>
.label4      0x0004007e: 00 f0 b3 d0: bl (lu10)       0xb3 <_exit_unlocked>
             0x00040082: ff 17:       nop (0r)        
             0x00040084: ff 17:       nop (0r)        
             0x00040086: ff 17:       nop (0r)        
             0x00040088: ff 17:       nop (0r)        
             0x0004008a: ff 17:       nop (0r)        
             0x0004008c: ff 17:       nop (0r)        
             0x0004008e: ff 17:       nop (0r)        
             0x00040090: ff 17:       nop (0r)        
             0x00040092: ff 17:       nop (0r)        
             0x00040094: ff 17:       nop (0r)        
             0x00040096: ff 17:       nop (0r)        
             0x00040098: ff 17:       nop (0r)        
             0x0004009a: ff 17:       nop (0r)        
             0x0004009c: ff 17:       nop (0r)        
             0x0004009e: ff 17:       nop (0r)        
             0x000400a0: ff 17:       nop (0r)        
             0x000400a2: ff 17:       nop (0r)        
             0x000400a4: ff 17:       nop (0r)        
             0x000400a6: ff 17:       nop (0r)        
             0x000400a8: ff 17:       nop (0r)        
             0x000400aa: ff 17:       nop (0r)        
             0x000400ac: ff 17:       nop (0r)        
             0x000400ae: ff 17:       nop (0r)        
             0x000400b0: ff 17:       nop (0r)        
             0x000400b2: ff 17:       nop (0r)        
             0x000400b4: ff 17:       nop (0r)        
             0x000400b6: ff 17:       nop (0r)        
             0x000400b8: ff 17:       nop (0r)        
             0x000400ba: ff 17:       nop (0r)        
             0x000400bc: ff 17:       nop (0r)        
             0x000400be: ff 17:       nop (0r)        
             0x000400c0: ff 17:       nop (0r)        
             0x000400c2: ff 17:       nop (0r)        
             0x000400c4: ff 17:       nop (0r)        
             0x000400c6: ff 17:       nop (0r)        
             0x000400c8: ff 17:       nop (0r)        
             0x000400ca: ff 17:       nop (0r)        
             0x000400cc: ff 17:       nop (0r)        
             0x000400ce: ff 17:       nop (0r)        
             0x000400d0: ff 17:       nop (0r)        
             0x000400d2: ff 17:       nop (0r)        
             0x000400d4: ff 17:       nop (0r)        
             0x000400d6: ff 17:       nop (0r)        
             0x000400d8: ff 17:       nop (0r)        
             0x000400da: ff 17:       nop (0r)        
             0x000400dc: ff 17:       nop (0r)        
             0x000400de: ff 17:       nop (0r)        
             0x000400e0: ff 17:       nop (0r)        
             0x000400e2: ff 17:       nop (0r)        
             0x000400e4: ff 17:       nop (0r)        
             0x000400e6: ff 17:       nop (0r)        
             0x000400e8: ff 17:       nop (0r)        
             0x000400ea: ff 17:       nop (0r)        
             0x000400ec: ff 17:       nop (0r)        
             0x000400ee: ff 17:       nop (0r)        
             0x000400f0: ff 17:       nop (0r)        
             0x000400f2: ff 17:       nop (0r)        
             0x000400f4: ff 17:       nop (0r)        
             0x000400f6: ff 17:       nop (0r)        
             0x000400f8: ff 17:       nop (0r)        
             0x000400fa: ff 17:       nop (0r)        
             0x000400fc: ff 17:       nop (0r)        
             0x000400fe: ff 17:       nop (0r)        

<_TrapHandler>:
             0x00040100: 00 f0 40 77: entsp (lu6)     0x0
             0x00040104: 00 f0 7e d0: bl (lu10)       0x7e <_DoException>

<_InitChildThread>:
             0x00040108: 01 d0:       bl (u10)        0x1 <_SetupThread>
             0x0004010a: ee 07:       ssync (0r)      

<_SetupThread>:
             0x0004010c: 07 dc:       ldap (u10)      r11, -0x7 <_TrapHandler>
             0x0004010e: ff 07:       set (0r)        kep, r11
             0x00040110: 00 f0 04 d9: ldap (lu10)     r11, 0x104 <.label5>
             0x00040114: fb 37:       set (1r)        cp, r11
             0x00040116: 00 f0 49 6f: ldw (lru6)      dp, cp[0x9]
             0x0004011a: c0 6a:       ldc (ru6)       r11, 0x0
             0x0004011c: fb 2f:       set (1r)        sp, r11
             0x0004011e: c0 77:       retsp (u6)      0x0

<__register_frame_info_bases>:
             0x00040120: c0 77:       retsp (u6)      0x0
             0x00040122: 00 00:       stw (2rus)      r0, r0[0x0]

<__dummy_main>:
             0x00040124: 00 f0 42 77: entsp (lu6)     0x2
             0x00040128: 00 73:       bu (u6)         0x0 <.label6>
.label6      0x0004012a: 00 73:       bu (u6)         0x0 <.label7>
.label7      0x0004012c: 00 73:       bu (u6)         0x0 <.label8>
.label8      0x0004012e: c2 77:       retsp (u6)      0x2

<main>:
             0x00040130: 42 77:       entsp (u6)      0x2
.label9      0x00040132: c2 86:       getr (rus)      r0, 0x2
             0x00040134: 02 74:       bt (ru6)        r0, -0x2 <.label9>
             0x00040136: 7c f0 02 68: ldc (lru6)      r0, 0x1f02
             0x0004013a: 00 f0 d2 6e: ldw (lru6)      r11, cp[0x12]
             0x0004013e: 5c 17:       setd (r2r)      res[r0], r11
             0x00040140: d1 4e:       outct (rus)     res[r0], 0x1
             0x00040142: d1 ce:       chkct (rus)     res[r0], 0x1
             0x00040144: 00 f0 40 58: ldw (lru6)      r1, dp[0x0]
             0x00040148: 41 e8:       setc (ru6)      res[r1], 0x1
             0x0004014a: c9 b6:       in (2r)         r2, res[r1]
             0x0004014c: ed 07:       clre (0r)       
             0x0004014e: 01 f0 e0 6a: ldc (lru6)      r11, 0x60
             0x00040152: ab 14:       add (3r)        r2, r2, r11
             0x00040154: 49 e8:       setc (ru6)      res[r1], 0x9
             0x00040156: d9 16:       setd (r2r)      res[r1], r2
             0x00040158: 09 d8:       ldap (u10)      r11, 0x9 <.label10>
             0x0004015a: f1 47:       setv (1r)       res[r1], r11
             0x0004015c: 06 d8:       ldap (u10)      r11, 0x6 <.label11>
             0x0004015e: f0 47:       setv (1r)       res[r0], r11
             0x00040160: 41 7b:       setsr (u6)      0x1
             0x00040162: f0 07:       eeu (1r)        res[r0]
             0x00040164: ff 17:       nop (0r)        
             0x00040166: f1 07:       eeu (1r)        res[r1]
             0x00040168: ec 07:       waiteu (0r)     
.label11     0x0004016a: d1 ce:       chkct (rus)     res[r0], 0x1
.label10     0x0004016c: 78 f0 02 68: ldc (lru6)      r0, 0x1e02
             0x00040170: 00 f0 d3 6e: ldw (lru6)      r11, cp[0x13]
             0x00040174: 5c 17:       setd (r2r)      res[r0], r11
             0x00040176: d1 4e:       outct (rus)     res[r0], 0x1
             0x00040178: 5c bf:       testct (2r)     r11, res[r0]
             0x0004017a: c2 7a:       bf (ru6)        r11, 0x2 <.label12>
             0x0004017c: d1 ce:       chkct (rus)     res[r0], 0x1
             0x0004017e: d1 4e:       outct (rus)     res[r0], 0x1
.label12     0x00040180: 5c 8f:       int (2r)        r11, res[r0]
             0x00040182: d1 ce:       chkct (rus)     res[r0], 0x1
             0x00040184: 30 68:       ldc (ru6)       r0, 0x30
             0x00040186: 00 f0 57 d0: bl (lu10)       0x57 <delay_ticks>
             0x0004018a: 00 f0 40 7f: ldaw (lu6)      r11, cp[0x0]
             0x0004018e: 00 68:       ldc (ru6)       r0, 0x0
             0x00040190: 60 68:       ldc (ru6)       r1, 0x20
             0x00040192: 02 69:       ldc (ru6)       r4, 0x2
.label15     0x00040194: ac 09:       ldw (2rus)      r2, r11[0x0]
             0x00040196: b8 ac:       shr (2rus)      r3, r2, 0x8
             0x00040198: 38 47:       zext (rus)      r2, 0x8
             0x0004019a: 58 30:       eq (3r)         r5, r2, r0
             0x0004019c: 47 79:       bf (ru6)        r5, 0x7 <.label13>
             0x0004019e: a8 a4:       shl (2rus)      r2, r2, 0x8
             0x000401a0: 68 42:       or (3r)         r2, r2, r4
             0x000401a2: bc a4:       shl (2rus)      r3, r3, 0x8
             0x000401a4: 7c 42:       or (3r)         r3, r3, r4
             0x000401a6: de 16:       setd (r2r)      res[r2], r3
             0x000401a8: 7c 94:       add (2rus)      r11, r11, 0x4
             0x000401aa: 03 73:       bu (u6)         0x3 <.label14>
.label13     0x000401ac: a0 a4:       shl (2rus)      r2, r0, 0x8
             0x000401ae: 68 42:       or (3r)         r2, r2, r4
             0x000401b0: e2 17:       freer (1r)      res[r2]
.label14     0x000401b2: 01 90:       add (2rus)      r0, r0, 0x1
             0x000401b4: 21 30:       eq (3r)         r2, r0, r1
             0x000401b6: 92 7c:       bf (ru6)        r2, -0x12 <.label15>
             0x000401b8: 00 f0 4c d4: bl (lu10)       -0x4c <__dummy_main>
             0x000401bc: 00 68:       ldc (ru6)       r0, 0x0
             0x000401be: c2 77:       retsp (u6)      0x2

<_get_cmdline>:
             0x000401c0: 00 f0 40 77: entsp (lu6)     0x0
             0x000401c4: 24 90:       add (2rus)      r2, r1, 0x0
             0x000401c6: 10 90:       add (2rus)      r1, r0, 0x0
             0x000401c8: 0d 68:       ldc (ru6)       r0, 0xd
             0x000401ca: 00 f0 4b d8: ldap (lu10)     r11, 0x4b <_DoSyscall>
             0x000401ce: fb 27:       bau (1r)        r11

<__libc_done>:
             0x000401d0: 00 f0 42 77: entsp (lu6)     0x2
             0x000401d4: 00 68:       ldc (ru6)       r0, 0x0
             0x000401d6: 10 90:       add (2rus)      r1, r0, 0x0
             0x000401d8: 00 f0 4c d0: bl (lu10)       0x4c <__call_exitprocs>
             0x000401dc: 00 f0 54 d0: bl (lu10)       0x54 <_cleanup>
             0x000401e0: 00 f0 7c d0: bl (lu10)       0x7c <.label16>
             0x000401e4: 00 f0 56 d0: bl (lu10)       0x56 <_done>

<_exit_unlocked>:
             0x000401e8: 00 f0 44 77: entsp (lu6)     0x4
             0x000401ec: 02 55:       stw (ru6)       r4, sp[0x2]
             0x000401ee: 40 90:       add (2rus)      r4, r0, 0x0
             0x000401f0: 40 68:       ldc (ru6)       r1, 0x0
             0x000401f2: 00 f0 3f d0: bl (lu10)       0x3f <__call_exitprocs>
             0x000401f6: 00 f0 47 d0: bl (lu10)       0x47 <_cleanup>
             0x000401fa: 00 f0 6f d0: bl (lu10)       0x6f <.label16>
             0x000401fe: c0 90:       add (2rus)      r0, r4, 0x0
             0x00040200: 00 f0 50 d0: bl (lu10)       0x50 <_exit>

<_DoException>:
             0x00040204: 00 f0 40 77: entsp (lu6)     0x0
             0x00040208: ed 07:       clre (0r)       
             0x0004020a: ec 07:       waiteu (0r)     

<memset>:
             0x0004020c: 00 f0 c1 6e: ldw (lru6)      r11, cp[0x1]
             0x00040210: ff 17:       nop (0r)        
             0x00040212: fb 27:       bau (1r)        r11

<__init_threadlocal_timer>:
             0x00040214: 00 f0 40 77: entsp (lu6)     0x0
             0x00040218: c9 86:       getr (rus)      r2, 0x1
             0x0004021a: 00 f0 40 60: ldaw (lru6)     r1, dp[0x0]
             0x0004021e: ee 17:       get (0r)        r11, id
             0x00040220: a7 fc ec 07: stw (l3r)       r2, r1[r11]
             0x00040224: c0 77:       retsp (u6)      0x0
             0x00040226: 00 00:       stw (2rus)      r0, r0[0x0]

<__free_threadlocal_timer>:
.label19     0x00040228: 00 f0 40 77: entsp (lu6)     0x0
             0x0004022c: 00 f0 80 60: ldaw (lru6)     r2, dp[0x0]
             0x00040230: ee 17:       get (0r)        r11, id
             0x00040232: ab 4c:       ldw (3r)        r2, r2[r11]
             0x00040234: e2 17:       freer (1r)      res[r2]
             0x00040236: c0 77:       retsp (u6)      0x0

<delay_ticks>:
             0x00040238: 00 f0 40 77: entsp (lu6)     0x0
             0x0004023c: e1 8f:       gettime (1r)    r1
             0x0004023e: ee 17:       get (0r)        r11, id
             0x00040240: 00 f0 80 60: ldaw (lru6)     r2, dp[0x0]
             0x00040244: ab 4c:       ldw (3r)        r2, r2[r11]
             0x00040246: 30 f8 ec 97: ashr (l2rus)    r3, r0, 0x20
             0x0004024a: c6 78:       bf (ru6)        r3, 0x6 <.label17>
             0x0004024c: 00 f0 d4 6c: ldw (lru6)      r3, cp[0x14]
             0x00040250: 37 10:       add (3r)        r3, r1, r3
             0x00040252: de 16:       setd (r2r)      res[r2], r3
             0x00040254: 89 e8:       setc (ru6)      res[r2], 0x9
             0x00040256: ce b6:       in (2r)         r3, res[r2]
.label17     0x00040258: 04 10:       add (3r)        r0, r1, r0
             0x0004025a: d2 16:       setd (r2r)      res[r2], r0
             0x0004025c: 89 e8:       setc (ru6)      res[r2], 0x9
             0x0004025e: c2 b6:       in (2r)         r0, res[r2]
             0x00040260: c0 77:       retsp (u6)      0x0
             0x00040262: 00 00:       stw (2rus)      r0, r0[0x0]

<_DoSyscall>:
             0x00040264: 00 f0 40 77: entsp (lu6)     0x0
             0x00040268: d0 a6:       mkmsk (rus)     r0, 0x20
             0x0004026a: c0 77:       retsp (u6)      0x0

<__call_exitprocs_impl>:
             0x0004026c: 00 f0 40 77: entsp (lu6)     0x0
             0x00040270: c0 77:       retsp (u6)      0x0
             0x00040272: 00 00:       stw (2rus)      r0, r0[0x0]

<__call_exitprocs>:
             0x00040274: 00 f0 42 77: entsp (lu6)     0x2
             0x00040278: 00 f0 08 d4: bl (lu10)       -0x8 <__call_exitprocs_impl>
             0x0004027c: c2 77:       retsp (u6)      0x2
             0x0004027e: 00 00:       stw (2rus)      r0, r0[0x0]

<_cleanup_impl>:
             0x00040280: 00 f0 40 77: entsp (lu6)     0x0
             0x00040284: c0 77:       retsp (u6)      0x0
             0x00040286: 00 00:       stw (2rus)      r0, r0[0x0]

<_cleanup>:
             0x00040288: 00 f0 42 77: entsp (lu6)     0x2
             0x0004028c: 00 f0 08 d4: bl (lu10)       -0x8 <_cleanup_impl>
             0x00040290: c2 77:       retsp (u6)      0x2
             0x00040292: 00 00:       stw (2rus)      r0, r0[0x0]

<_done>:
             0x00040294: 00 f0 40 77: entsp (lu6)     0x0
             0x00040298: 07 68:       ldc (ru6)       r0, 0x7
             0x0004029a: 00 f0 1d d4: bl (lu10)       -0x1d <_DoSyscall>
             0x0004029e: ed 07:       clre (0r)       
             0x000402a0: ec 07:       waiteu (0r)     
             0x000402a2: 00 00:       stw (2rus)      r0, r0[0x0]

<_exit>:
             0x000402a4: 00 f0 40 77: entsp (lu6)     0x0
             0x000402a8: 10 90:       add (2rus)      r1, r0, 0x0
             0x000402aa: 00 68:       ldc (ru6)       r0, 0x0
             0x000402ac: 00 f0 26 d4: bl (lu10)       -0x26 <_DoSyscall>
             0x000402b0: ed 07:       clre (0r)       
             0x000402b2: ec 07:       waiteu (0r)     

<__alloc_libc_hwlock>:
.label18     0x000402b4: 00 f0 40 77: entsp (lu6)     0x0
             0x000402b8: 81 87:       getr (rus)      r0, 0x5
             0x000402ba: 00 f0 08 50: stw (lru6)      r0, dp[0x8]
             0x000402be: c0 77:       retsp (u6)      0x0

Disassembly of section .init (size: 28)

<_init>:
.label2      0x000402c0: 00 f0 42 77: entsp (lu6)     0x2
             0x000402c4: 00 f0 0a d4: bl (lu10)       -0xa <.label18>
             0x000402c8: 00 f0 11 6d: ldw (lru6)      r4, cp[0x11]
             0x000402cc: 06 79:       bf (ru6)        r4, 0x6 <do_ctors_end>
             0x000402ce: 00 f0 4b 6d: ldw (lru6)      r5, cp[0xb]

<do_ctors_loop>:
             0x000402d2: 01 99:       sub (2rus)      r4, r4, 0x1
             0x000402d4: 04 4b:       ldw (3r)        r0, r5[r4]
             0x000402d6: e0 27:       bla (1r)        r0
             0x000402d8: 04 75:       bt (ru6)        r4, -0x4 <do_ctors_loop>

<do_ctors_end>:
             0x000402da: c2 77:       retsp (u6)      0x2

Disassembly of section .fini (size: 48)

<_fini>:
.label16     0x000402dc: 00 f0 42 77: entsp (lu6)     0x2
             0x000402e0: 84 77:       extsp (u6)      0x4
             0x000402e2: 01 55:       stw (ru6)       r4, sp[0x1]
             0x000402e4: 42 55:       stw (ru6)       r5, sp[0x2]
             0x000402e6: 83 55:       stw (ru6)       r6, sp[0x3]
             0x000402e8: 00 f0 90 6d: ldw (lru6)      r6, cp[0x10]
             0x000402ec: 88 79:       bf (ru6)        r6, 0x8 <do_dtors_end>
             0x000402ee: 00 69:       ldc (ru6)       r4, 0x0
             0x000402f0: 00 f0 4c 6d: ldw (lru6)      r5, cp[0xc]

<do_dtors_loop>:
             0x000402f4: 04 4b:       ldw (3r)        r0, r5[r4]
             0x000402f6: e0 27:       bla (1r)        r0
             0x000402f8: 01 91:       add (2rus)      r4, r4, 0x1
             0x000402fa: b2 cb:       lsu (3r)        r11, r4, r6
             0x000402fc: c5 76:       bt (ru6)        r11, -0x5 <do_dtors_loop>

<do_dtors_end>:
             0x000402fe: 00 f0 6d d4: bl (lu10)       -0x6d <.label19>
             0x00040302: 01 5d:       ldw (ru6)       r4, sp[0x1]
             0x00040304: 42 5d:       ldw (ru6)       r5, sp[0x2]
             0x00040306: 83 5d:       ldw (ru6)       r6, sp[0x3]
             0x00040308: 84 67:       ldaw (ru6)      sp, sp[0x4]
             0x0004030a: c2 77:       retsp (u6)      0x2

Loadable 2 for tile[2] (node "1", tile 0):

Disassembly of section .text (size: 1160)

<_start>:
             0x00040000: 00 f0 40 77: entsp (lu6)     0x0
             0x00040004: 4b 68:       ldc (ru6)       r1, 0xb
             0x00040006: d1 fe ec 17: get (l2r)       r0, ps[r1]
             0x0004000a: 04 f0 8b 68: ldc (lru6)      r2, 0x10b
             0x0004000e: c2 fe ec 1f: set (lr2r)      ps[r2], r0
             0x00040012: c3 86:       getr (rus)      r0, 0x3
             0x00040014: 79 d8:       ldap (u10)      r11, 0x79 <_InitChildThread>
             0x00040016: 02 73:       bu (u6)         0x2 <.label0>
.label1      0x00040018: 5d ff ec 07: init (l2r)      t[r1]:pc, r11
.label0      0x0004001c: d4 06:       getst (2r)      r1, res[r0]
             0x0004001e: 44 74:       bt (ru6)        r1, -0x4 <.label1>
             0x00040020: f0 1f:       msync (1r)      res[r0]
             0x00040022: 74 d0:       bl (u10)        0x74 <_SetupThread>
             0x00040024: 00 f0 8d 6f: ldw (lru6)      sp, cp[0xd]
             0x00040028: f0 17:       mjoin (1r)      res[r0]
             0x0004002a: e0 17:       freer (1r)      res[r0]
             0x0004002c: 00 f0 11 60: ldaw (lru6)     r0, dp[0x11]
             0x00040030: 40 68:       ldc (ru6)       r1, 0x0
             0x00040032: 00 f0 8e 6c: ldw (lru6)      r2, cp[0xe]
             0x00040036: 00 f0 cd d1: bl (lu10)       0x1cd <memset>
             0x0004003a: 00 f0 0a 6c: ldw (lru6)      r0, cp[0xa]
             0x0004003e: 40 68:       ldc (ru6)       r1, 0x0
             0x00040040: 00 f0 8f 6c: ldw (lru6)      r2, cp[0xf]
             0x00040044: 00 f0 c6 d1: bl (lu10)       0x1c6 <memset>
             0x00040048: 00 f0 c8 d1: bl (lu10)       0x1c8 <__init_threadlocal_timer>
             0x0004004c: 00 f0 1c d2: bl (lu10)       0x21c <.label2>
             0x00040050: 00 f0 c6 6a: ldc (lru6)      r11, 0x6
             0x00040054: c8 ea:       setc (ru6)      res[r11], 0x8
             0x00040056: cf ea:       setc (ru6)      res[r11], 0xf
             0x00040058: 00 68:       ldc (ru6)       r0, 0x0
             0x0004005a: 01 54:       stw (ru6)       r0, sp[0x1]
             0x0004005c: 00 f0 40 68: ldc (lru6)      r1, 0x0
             0x00040060: 48 78:       bf (ru6)        r1, 0x8 <.label3>
             0x00040062: 01 64:       ldaw (ru6)      r0, sp[0x1]
             0x00040064: 00 f0 90 d1: bl (lu10)       0x190 <_get_cmdline>
             0x00040068: b0 f8 ec 97: ashr (l2rus)    r11, r0, 0x20
             0x0004006c: c2 7a:       bf (ru6)        r11, 0x2 <.label3>
             0x0004006e: 01 90:       add (2rus)      r0, r0, 0x1
             0x00040070: f0 4f:       ecallt (1r)     r0
.label3      0x00040072: 41 64:       ldaw (ru6)      r1, sp[0x1]
             0x00040074: 00 f0 40 d1: bl (lu10)       0x140 <main>
             0x00040078: 02 70:       bt (ru6)        r0, 0x2 <.label4>
             0x0004007a: 00 f0 8d d1: bl (lu10)       0x18d <__libc_done>
.label4      0x0004007e: 00 f0 97 d1: bl (lu10)       0x197 <_exit_unlocked>
             0x00040082: ff 17:       nop (0r)        
             0x00040084: ff 17:       nop (0r)        
             0x00040086: ff 17:       nop (0r)        
             0x00040088: ff 17:       nop (0r)        
             0x0004008a: ff 17:       nop (0r)        
             0x0004008c: ff 17:       nop (0r)        
             0x0004008e: ff 17:       nop (0r)        
             0x00040090: ff 17:       nop (0r)        
             0x00040092: ff 17:       nop (0r)        
             0x00040094: ff 17:       nop (0r)        
             0x00040096: ff 17:       nop (0r)        
             0x00040098: ff 17:       nop (0r)        
             0x0004009a: ff 17:       nop (0r)        
             0x0004009c: ff 17:       nop (0r)        
             0x0004009e: ff 17:       nop (0r)        
             0x000400a0: ff 17:       nop (0r)        
             0x000400a2: ff 17:       nop (0r)        
             0x000400a4: ff 17:       nop (0r)        
             0x000400a6: ff 17:       nop (0r)        
             0x000400a8: ff 17:       nop (0r)        
             0x000400aa: ff 17:       nop (0r)        
             0x000400ac: ff 17:       nop (0r)        
             0x000400ae: ff 17:       nop (0r)        
             0x000400b0: ff 17:       nop (0r)        
             0x000400b2: ff 17:       nop (0r)        
             0x000400b4: ff 17:       nop (0r)        
             0x000400b6: ff 17:       nop (0r)        
             0x000400b8: ff 17:       nop (0r)        
             0x000400ba: ff 17:       nop (0r)        
             0x000400bc: ff 17:       nop (0r)        
             0x000400be: ff 17:       nop (0r)        
             0x000400c0: ff 17:       nop (0r)        
             0x000400c2: ff 17:       nop (0r)        
             0x000400c4: ff 17:       nop (0r)        
             0x000400c6: ff 17:       nop (0r)        
             0x000400c8: ff 17:       nop (0r)        
             0x000400ca: ff 17:       nop (0r)        
             0x000400cc: ff 17:       nop (0r)        
             0x000400ce: ff 17:       nop (0r)        
             0x000400d0: ff 17:       nop (0r)        
             0x000400d2: ff 17:       nop (0r)        
             0x000400d4: ff 17:       nop (0r)        
             0x000400d6: ff 17:       nop (0r)        
             0x000400d8: ff 17:       nop (0r)        
             0x000400da: ff 17:       nop (0r)        
             0x000400dc: ff 17:       nop (0r)        
             0x000400de: ff 17:       nop (0r)        
             0x000400e0: ff 17:       nop (0r)        
             0x000400e2: ff 17:       nop (0r)        
             0x000400e4: ff 17:       nop (0r)        
             0x000400e6: ff 17:       nop (0r)        
             0x000400e8: ff 17:       nop (0r)        
             0x000400ea: ff 17:       nop (0r)        
             0x000400ec: ff 17:       nop (0r)        
             0x000400ee: ff 17:       nop (0r)        
             0x000400f0: ff 17:       nop (0r)        
             0x000400f2: ff 17:       nop (0r)        
             0x000400f4: ff 17:       nop (0r)        
             0x000400f6: ff 17:       nop (0r)        
             0x000400f8: ff 17:       nop (0r)        
             0x000400fa: ff 17:       nop (0r)        
             0x000400fc: ff 17:       nop (0r)        
             0x000400fe: ff 17:       nop (0r)        

<_TrapHandler>:
             0x00040100: 00 f0 40 77: entsp (lu6)     0x0
             0x00040104: 00 f0 62 d1: bl (lu10)       0x162 <_DoException>

<_InitChildThread>:
             0x00040108: 01 d0:       bl (u10)        0x1 <_SetupThread>
             0x0004010a: ee 07:       ssync (0r)      

<_SetupThread>:
             0x0004010c: 07 dc:       ldap (u10)      r11, -0x7 <_TrapHandler>
             0x0004010e: ff 07:       set (0r)        kep, r11
             0x00040110: 00 f0 e8 d9: ldap (lu10)     r11, 0x1e8 <.label5>
             0x00040114: fb 37:       set (1r)        cp, r11
             0x00040116: 00 f0 49 6f: ldw (lru6)      dp, cp[0x9]
             0x0004011a: c0 6a:       ldc (ru6)       r11, 0x0
             0x0004011c: fb 2f:       set (1r)        sp, r11
             0x0004011e: c0 77:       retsp (u6)      0x0

<__register_frame_info_bases>:
             0x00040120: c0 77:       retsp (u6)      0x0
             0x00040122: 00 00:       stw (2rus)      r0, r0[0x0]

<flag0_port.ctor>:
             0x00040124: 00 f0 40 77: entsp (lu6)     0x0
             0x00040128: 00 73:       bu (u6)         0x0 <.label6>
.label6      0x0004012a: 00 73:       bu (u6)         0x0 <.label7>
.label7      0x0004012c: 00 f0 08 58: ldw (lru6)      r0, dp[0x8]
             0x00040130: 08 e8:       setc (ru6)      res[r0], 0x8
             0x00040132: 00 f0 46 68: ldc (lru6)      r1, 0x6
             0x00040136: d4 fe ec 0f: setclk (lr2r)   res[r0], r1
             0x0004013a: 00 73:       bu (u6)         0x0 <.label8>
.label8      0x0004013c: c0 77:       retsp (u6)      0x0
             0x0004013e: 00 00:       stw (2rus)      r0, r0[0x0]

<flag0_port.dtor>:
             0x00040140: 00 f0 40 77: entsp (lu6)     0x0
             0x00040144: 00 73:       bu (u6)         0x0 <.label9>
.label9      0x00040146: 00 73:       bu (u6)         0x0 <.label10>
.label10     0x00040148: 00 f0 08 58: ldw (lru6)      r0, dp[0x8]
             0x0004014c: 00 e8:       setc (ru6)      res[r0], 0x0
             0x0004014e: 00 73:       bu (u6)         0x0 <.label11>
.label11     0x00040150: c0 77:       retsp (u6)      0x0
             0x00040152: 00 00:       stw (2rus)      r0, r0[0x0]

<flag1_port.ctor>:
             0x00040154: 00 f0 40 77: entsp (lu6)     0x0
             0x00040158: 00 73:       bu (u6)         0x0 <.label12>
.label12     0x0004015a: 00 73:       bu (u6)         0x0 <.label13>
.label13     0x0004015c: 00 f0 09 58: ldw (lru6)      r0, dp[0x9]
             0x00040160: 08 e8:       setc (ru6)      res[r0], 0x8
             0x00040162: 00 f0 46 68: ldc (lru6)      r1, 0x6
             0x00040166: d4 fe ec 0f: setclk (lr2r)   res[r0], r1
             0x0004016a: 00 73:       bu (u6)         0x0 <.label14>
.label14     0x0004016c: c0 77:       retsp (u6)      0x0
             0x0004016e: 00 00:       stw (2rus)      r0, r0[0x0]

<flag1_port.dtor>:
             0x00040170: 00 f0 40 77: entsp (lu6)     0x0
             0x00040174: 00 73:       bu (u6)         0x0 <.label15>
.label15     0x00040176: 00 73:       bu (u6)         0x0 <.label16>
.label16     0x00040178: 00 f0 09 58: ldw (lru6)      r0, dp[0x9]
             0x0004017c: 00 e8:       setc (ru6)      res[r0], 0x0
             0x0004017e: 00 73:       bu (u6)         0x0 <.label17>
.label17     0x00040180: c0 77:       retsp (u6)      0x0
             0x00040182: 00 00:       stw (2rus)      r0, r0[0x0]

<flag2_port.ctor>:
             0x00040184: 00 f0 40 77: entsp (lu6)     0x0
             0x00040188: 00 73:       bu (u6)         0x0 <.label18>
.label18     0x0004018a: 00 73:       bu (u6)         0x0 <.label19>
.label19     0x0004018c: 00 f0 0a 58: ldw (lru6)      r0, dp[0xa]
             0x00040190: 08 e8:       setc (ru6)      res[r0], 0x8
             0x00040192: 00 f0 46 68: ldc (lru6)      r1, 0x6
             0x00040196: d4 fe ec 0f: setclk (lr2r)   res[r0], r1
             0x0004019a: 00 73:       bu (u6)         0x0 <.label20>
.label20     0x0004019c: c0 77:       retsp (u6)      0x0
             0x0004019e: 00 00:       stw (2rus)      r0, r0[0x0]

<flag2_port.dtor>:
             0x000401a0: 00 f0 40 77: entsp (lu6)     0x0
             0x000401a4: 00 73:       bu (u6)         0x0 <.label21>
.label21     0x000401a6: 00 73:       bu (u6)         0x0 <.label22>
.label22     0x000401a8: 00 f0 0a 58: ldw (lru6)      r0, dp[0xa]
             0x000401ac: 00 e8:       setc (ru6)      res[r0], 0x0
             0x000401ae: 00 73:       bu (u6)         0x0 <.label23>
.label23     0x000401b0: c0 77:       retsp (u6)      0x0
             0x000401b2: 00 00:       stw (2rus)      r0, r0[0x0]

<p_usb_clk.ctor>:
             0x000401b4: 00 f0 40 77: entsp (lu6)     0x0
             0x000401b8: 00 73:       bu (u6)         0x0 <.label24>
.label24     0x000401ba: 00 73:       bu (u6)         0x0 <.label25>
.label25     0x000401bc: 00 f0 0b 58: ldw (lru6)      r0, dp[0xb]
             0x000401c0: 08 e8:       setc (ru6)      res[r0], 0x8
             0x000401c2: 80 f0 0f e8: setc (lru6)     res[r0], 0x200f
             0x000401c6: 60 68:       ldc (ru6)       r1, 0x20
             0x000401c8: d4 fe ec 27: settw (lr2r)    res[r0], r1
             0x000401cc: 00 f0 46 68: ldc (lru6)      r1, 0x6
             0x000401d0: d4 fe ec 0f: setclk (lr2r)   res[r0], r1
             0x000401d4: 00 73:       bu (u6)         0x0 <.label26>
.label26     0x000401d6: c0 77:       retsp (u6)      0x0

<p_usb_clk.dtor>:
             0x000401d8: 00 f0 40 77: entsp (lu6)     0x0
             0x000401dc: 00 73:       bu (u6)         0x0 <.label27>
.label27     0x000401de: 00 73:       bu (u6)         0x0 <.label28>
.label28     0x000401e0: 00 f0 0b 58: ldw (lru6)      r0, dp[0xb]
             0x000401e4: 00 e8:       setc (ru6)      res[r0], 0x0
             0x000401e6: 00 73:       bu (u6)         0x0 <.label29>
.label29     0x000401e8: c0 77:       retsp (u6)      0x0
             0x000401ea: 00 00:       stw (2rus)      r0, r0[0x0]

<p_usb_txd.ctor>:
             0x000401ec: 00 f0 40 77: entsp (lu6)     0x0
             0x000401f0: 00 73:       bu (u6)         0x0 <.label30>
.label30     0x000401f2: 00 73:       bu (u6)         0x0 <.label31>
.label31     0x000401f4: 00 f0 0c 58: ldw (lru6)      r0, dp[0xc]
             0x000401f8: 08 e8:       setc (ru6)      res[r0], 0x8
             0x000401fa: 80 f0 0f e8: setc (lru6)     res[r0], 0x200f
             0x000401fe: 60 68:       ldc (ru6)       r1, 0x20
             0x00040200: d4 fe ec 27: settw (lr2r)    res[r0], r1
             0x00040204: 00 f0 46 68: ldc (lru6)      r1, 0x6
             0x00040208: d4 fe ec 0f: setclk (lr2r)   res[r0], r1
             0x0004020c: 00 73:       bu (u6)         0x0 <.label32>
.label32     0x0004020e: c0 77:       retsp (u6)      0x0

<p_usb_txd.dtor>:
             0x00040210: 00 f0 40 77: entsp (lu6)     0x0
             0x00040214: 00 73:       bu (u6)         0x0 <.label33>
.label33     0x00040216: 00 73:       bu (u6)         0x0 <.label34>
.label34     0x00040218: 00 f0 0c 58: ldw (lru6)      r0, dp[0xc]
             0x0004021c: 00 e8:       setc (ru6)      res[r0], 0x0
             0x0004021e: 00 73:       bu (u6)         0x0 <.label35>
.label35     0x00040220: c0 77:       retsp (u6)      0x0
             0x00040222: 00 00:       stw (2rus)      r0, r0[0x0]

<p_usb_rxd.ctor>:
             0x00040224: 00 f0 40 77: entsp (lu6)     0x0
             0x00040228: 00 73:       bu (u6)         0x0 <.label36>
.label36     0x0004022a: 00 73:       bu (u6)         0x0 <.label37>
.label37     0x0004022c: 00 f0 0d 58: ldw (lru6)      r0, dp[0xd]
             0x00040230: 08 e8:       setc (ru6)      res[r0], 0x8
             0x00040232: 80 f0 0f e8: setc (lru6)     res[r0], 0x200f
             0x00040236: 60 68:       ldc (ru6)       r1, 0x20
             0x00040238: d4 fe ec 27: settw (lr2r)    res[r0], r1
             0x0004023c: 00 f0 46 68: ldc (lru6)      r1, 0x6
             0x00040240: d4 fe ec 0f: setclk (lr2r)   res[r0], r1
             0x00040244: 00 73:       bu (u6)         0x0 <.label38>
.label38     0x00040246: c0 77:       retsp (u6)      0x0

<p_usb_rxd.dtor>:
             0x00040248: 00 f0 40 77: entsp (lu6)     0x0
             0x0004024c: 00 73:       bu (u6)         0x0 <.label39>
.label39     0x0004024e: 00 73:       bu (u6)         0x0 <.label40>
.label40     0x00040250: 00 f0 0d 58: ldw (lru6)      r0, dp[0xd]
             0x00040254: 00 e8:       setc (ru6)      res[r0], 0x0
             0x00040256: 00 73:       bu (u6)         0x0 <.label41>
.label41     0x00040258: c0 77:       retsp (u6)      0x0
             0x0004025a: 00 00:       stw (2rus)      r0, r0[0x0]

<tx_readyout.ctor>:
             0x0004025c: 00 f0 40 77: entsp (lu6)     0x0
             0x00040260: 00 73:       bu (u6)         0x0 <.label42>
.label42     0x00040262: 00 73:       bu (u6)         0x0 <.label43>
.label43     0x00040264: 00 f0 0e 58: ldw (lru6)      r0, dp[0xe]
             0x00040268: 08 e8:       setc (ru6)      res[r0], 0x8
             0x0004026a: 00 f0 46 68: ldc (lru6)      r1, 0x6
             0x0004026e: d4 fe ec 0f: setclk (lr2r)   res[r0], r1
             0x00040272: 00 73:       bu (u6)         0x0 <.label44>
.label44     0x00040274: c0 77:       retsp (u6)      0x0
             0x00040276: 00 00:       stw (2rus)      r0, r0[0x0]

<tx_readyout.dtor>:
             0x00040278: 00 f0 40 77: entsp (lu6)     0x0
             0x0004027c: 00 73:       bu (u6)         0x0 <.label45>
.label45     0x0004027e: 00 73:       bu (u6)         0x0 <.label46>
.label46     0x00040280: 00 f0 0e 58: ldw (lru6)      r0, dp[0xe]
             0x00040284: 00 e8:       setc (ru6)      res[r0], 0x0
             0x00040286: 00 73:       bu (u6)         0x0 <.label47>
.label47     0x00040288: c0 77:       retsp (u6)      0x0
             0x0004028a: 00 00:       stw (2rus)      r0, r0[0x0]

<tx_readyin.ctor>:
             0x0004028c: 00 f0 40 77: entsp (lu6)     0x0
             0x00040290: 00 73:       bu (u6)         0x0 <.label48>
.label48     0x00040292: 00 73:       bu (u6)         0x0 <.label49>
.label49     0x00040294: 00 f0 0f 58: ldw (lru6)      r0, dp[0xf]
             0x00040298: 08 e8:       setc (ru6)      res[r0], 0x8
             0x0004029a: 00 f0 46 68: ldc (lru6)      r1, 0x6
             0x0004029e: d4 fe ec 0f: setclk (lr2r)   res[r0], r1
             0x000402a2: 00 73:       bu (u6)         0x0 <.label50>
.label50     0x000402a4: c0 77:       retsp (u6)      0x0
             0x000402a6: 00 00:       stw (2rus)      r0, r0[0x0]

<tx_readyin.dtor>:
             0x000402a8: 00 f0 40 77: entsp (lu6)     0x0
             0x000402ac: 00 73:       bu (u6)         0x0 <.label51>
.label51     0x000402ae: 00 73:       bu (u6)         0x0 <.label52>
.label52     0x000402b0: 00 f0 0f 58: ldw (lru6)      r0, dp[0xf]
             0x000402b4: 00 e8:       setc (ru6)      res[r0], 0x0
             0x000402b6: 00 73:       bu (u6)         0x0 <.label53>
.label53     0x000402b8: c0 77:       retsp (u6)      0x0
             0x000402ba: 00 00:       stw (2rus)      r0, r0[0x0]

<rx_rdy.ctor>:
             0x000402bc: 00 f0 40 77: entsp (lu6)     0x0
             0x000402c0: 00 73:       bu (u6)         0x0 <.label54>
.label54     0x000402c2: 00 73:       bu (u6)         0x0 <.label55>
.label55     0x000402c4: 00 f0 10 58: ldw (lru6)      r0, dp[0x10]
             0x000402c8: 08 e8:       setc (ru6)      res[r0], 0x8
             0x000402ca: 00 f0 46 68: ldc (lru6)      r1, 0x6
             0x000402ce: d4 fe ec 0f: setclk (lr2r)   res[r0], r1
             0x000402d2: 00 73:       bu (u6)         0x0 <.label56>
.label56     0x000402d4: c0 77:       retsp (u6)      0x0
             0x000402d6: 00 00:       stw (2rus)      r0, r0[0x0]

<rx_rdy.dtor>:
             0x000402d8: 00 f0 40 77: entsp (lu6)     0x0
             0x000402dc: 00 73:       bu (u6)         0x0 <.label57>
.label57     0x000402de: 00 73:       bu (u6)         0x0 <.label58>
.label58     0x000402e0: 00 f0 10 58: ldw (lru6)      r0, dp[0x10]
             0x000402e4: 00 e8:       setc (ru6)      res[r0], 0x0
             0x000402e6: 00 73:       bu (u6)         0x0 <.label59>
.label59     0x000402e8: c0 77:       retsp (u6)      0x0
             0x000402ea: 00 00:       stw (2rus)      r0, r0[0x0]

<__dummy_main>:
             0x000402ec: 00 f0 42 77: entsp (lu6)     0x2
             0x000402f0: 00 73:       bu (u6)         0x0 <.label60>
.label60     0x000402f2: 00 73:       bu (u6)         0x0 <.label61>
.label61     0x000402f4: 00 73:       bu (u6)         0x0 <.label62>
.label62     0x000402f6: c2 77:       retsp (u6)      0x2

<main>:
             0x000402f8: 42 77:       entsp (u6)      0x2
.label63     0x000402fa: c2 86:       getr (rus)      r0, 0x2
             0x000402fc: 02 74:       bt (ru6)        r0, -0x2 <.label63>
             0x000402fe: 7c f0 02 68: ldc (lru6)      r0, 0x1f02
             0x00040302: 00 f0 d2 6e: ldw (lru6)      r11, cp[0x12]
             0x00040306: 5c 17:       setd (r2r)      res[r0], r11
             0x00040308: d1 4e:       outct (rus)     res[r0], 0x1
             0x0004030a: d1 ce:       chkct (rus)     res[r0], 0x1
             0x0004030c: 00 f0 40 58: ldw (lru6)      r1, dp[0x0]
             0x00040310: 41 e8:       setc (ru6)      res[r1], 0x1
             0x00040312: c9 b6:       in (2r)         r2, res[r1]
             0x00040314: ed 07:       clre (0r)       
             0x00040316: 01 f0 e0 6a: ldc (lru6)      r11, 0x60
             0x0004031a: ab 14:       add (3r)        r2, r2, r11
             0x0004031c: 49 e8:       setc (ru6)      res[r1], 0x9
             0x0004031e: d9 16:       setd (r2r)      res[r1], r2
             0x00040320: 09 d8:       ldap (u10)      r11, 0x9 <.label64>
             0x00040322: f1 47:       setv (1r)       res[r1], r11
             0x00040324: 06 d8:       ldap (u10)      r11, 0x6 <.label65>
             0x00040326: f0 47:       setv (1r)       res[r0], r11
             0x00040328: 41 7b:       setsr (u6)      0x1
             0x0004032a: f0 07:       eeu (1r)        res[r0]
             0x0004032c: ff 17:       nop (0r)        
             0x0004032e: f1 07:       eeu (1r)        res[r1]
             0x00040330: ec 07:       waiteu (0r)     
.label65     0x00040332: d1 ce:       chkct (rus)     res[r0], 0x1
.label64     0x00040334: 78 f0 02 68: ldc (lru6)      r0, 0x1e02
             0x00040338: 00 f0 d3 6e: ldw (lru6)      r11, cp[0x13]
             0x0004033c: 5c 17:       setd (r2r)      res[r0], r11
             0x0004033e: d1 4e:       outct (rus)     res[r0], 0x1
             0x00040340: 5c bf:       testct (2r)     r11, res[r0]
             0x00040342: c2 7a:       bf (ru6)        r11, 0x2 <.label66>
             0x00040344: d1 ce:       chkct (rus)     res[r0], 0x1
             0x00040346: d1 4e:       outct (rus)     res[r0], 0x1
.label66     0x00040348: 5c 8f:       int (2r)        r11, res[r0]
             0x0004034a: d1 ce:       chkct (rus)     res[r0], 0x1
             0x0004034c: 30 68:       ldc (ru6)       r0, 0x30
             0x0004034e: 00 f0 57 d0: bl (lu10)       0x57 <delay_ticks>
             0x00040352: 00 f0 40 7f: ldaw (lu6)      r11, cp[0x0]
             0x00040356: 00 68:       ldc (ru6)       r0, 0x0
             0x00040358: 60 68:       ldc (ru6)       r1, 0x20
             0x0004035a: 02 69:       ldc (ru6)       r4, 0x2
.label69     0x0004035c: ac 09:       ldw (2rus)      r2, r11[0x0]
             0x0004035e: b8 ac:       shr (2rus)      r3, r2, 0x8
             0x00040360: 38 47:       zext (rus)      r2, 0x8
             0x00040362: 58 30:       eq (3r)         r5, r2, r0
             0x00040364: 47 79:       bf (ru6)        r5, 0x7 <.label67>
             0x00040366: a8 a4:       shl (2rus)      r2, r2, 0x8
             0x00040368: 68 42:       or (3r)         r2, r2, r4
             0x0004036a: bc a4:       shl (2rus)      r3, r3, 0x8
             0x0004036c: 7c 42:       or (3r)         r3, r3, r4
             0x0004036e: de 16:       setd (r2r)      res[r2], r3
             0x00040370: 7c 94:       add (2rus)      r11, r11, 0x4
             0x00040372: 03 73:       bu (u6)         0x3 <.label68>
.label67     0x00040374: a0 a4:       shl (2rus)      r2, r0, 0x8
             0x00040376: 68 42:       or (3r)         r2, r2, r4
             0x00040378: e2 17:       freer (1r)      res[r2]
.label68     0x0004037a: 01 90:       add (2rus)      r0, r0, 0x1
             0x0004037c: 21 30:       eq (3r)         r2, r0, r1
             0x0004037e: 92 7c:       bf (ru6)        r2, -0x12 <.label69>
             0x00040380: 00 f0 4c d4: bl (lu10)       -0x4c <__dummy_main>
             0x00040384: 00 68:       ldc (ru6)       r0, 0x0
             0x00040386: c2 77:       retsp (u6)      0x2

<_get_cmdline>:
             0x00040388: 00 f0 40 77: entsp (lu6)     0x0
             0x0004038c: 24 90:       add (2rus)      r2, r1, 0x0
             0x0004038e: 10 90:       add (2rus)      r1, r0, 0x0
             0x00040390: 0d 68:       ldc (ru6)       r0, 0xd
             0x00040392: 00 f0 4b d8: ldap (lu10)     r11, 0x4b <_DoSyscall>
             0x00040396: fb 27:       bau (1r)        r11

<__libc_done>:
             0x00040398: 00 f0 42 77: entsp (lu6)     0x2
             0x0004039c: 00 68:       ldc (ru6)       r0, 0x0
             0x0004039e: 10 90:       add (2rus)      r1, r0, 0x0
             0x000403a0: 00 f0 4c d0: bl (lu10)       0x4c <__call_exitprocs>
             0x000403a4: 00 f0 54 d0: bl (lu10)       0x54 <_cleanup>
             0x000403a8: 00 f0 7c d0: bl (lu10)       0x7c <.label70>
             0x000403ac: 00 f0 56 d0: bl (lu10)       0x56 <_done>

<_exit_unlocked>:
             0x000403b0: 00 f0 44 77: entsp (lu6)     0x4
             0x000403b4: 02 55:       stw (ru6)       r4, sp[0x2]
             0x000403b6: 40 90:       add (2rus)      r4, r0, 0x0
             0x000403b8: 40 68:       ldc (ru6)       r1, 0x0
             0x000403ba: 00 f0 3f d0: bl (lu10)       0x3f <__call_exitprocs>
             0x000403be: 00 f0 47 d0: bl (lu10)       0x47 <_cleanup>
             0x000403c2: 00 f0 6f d0: bl (lu10)       0x6f <.label70>
             0x000403c6: c0 90:       add (2rus)      r0, r4, 0x0
             0x000403c8: 00 f0 50 d0: bl (lu10)       0x50 <_exit>

<_DoException>:
             0x000403cc: 00 f0 40 77: entsp (lu6)     0x0
             0x000403d0: ed 07:       clre (0r)       
             0x000403d2: ec 07:       waiteu (0r)     

<memset>:
             0x000403d4: 00 f0 c1 6e: ldw (lru6)      r11, cp[0x1]
             0x000403d8: ff 17:       nop (0r)        
             0x000403da: fb 27:       bau (1r)        r11

<__init_threadlocal_timer>:
             0x000403dc: 00 f0 40 77: entsp (lu6)     0x0
             0x000403e0: c9 86:       getr (rus)      r2, 0x1
             0x000403e2: 00 f0 40 60: ldaw (lru6)     r1, dp[0x0]
             0x000403e6: ee 17:       get (0r)        r11, id
             0x000403e8: a7 fc ec 07: stw (l3r)       r2, r1[r11]
             0x000403ec: c0 77:       retsp (u6)      0x0
             0x000403ee: 00 00:       stw (2rus)      r0, r0[0x0]

<__free_threadlocal_timer>:
.label73     0x000403f0: 00 f0 40 77: entsp (lu6)     0x0
             0x000403f4: 00 f0 80 60: ldaw (lru6)     r2, dp[0x0]
             0x000403f8: ee 17:       get (0r)        r11, id
             0x000403fa: ab 4c:       ldw (3r)        r2, r2[r11]
             0x000403fc: e2 17:       freer (1r)      res[r2]
             0x000403fe: c0 77:       retsp (u6)      0x0

<delay_ticks>:
             0x00040400: 00 f0 40 77: entsp (lu6)     0x0
             0x00040404: e1 8f:       gettime (1r)    r1
             0x00040406: ee 17:       get (0r)        r11, id
             0x00040408: 00 f0 80 60: ldaw (lru6)     r2, dp[0x0]
             0x0004040c: ab 4c:       ldw (3r)        r2, r2[r11]
             0x0004040e: 30 f8 ec 97: ashr (l2rus)    r3, r0, 0x20
             0x00040412: c6 78:       bf (ru6)        r3, 0x6 <.label71>
             0x00040414: 00 f0 d4 6c: ldw (lru6)      r3, cp[0x14]
             0x00040418: 37 10:       add (3r)        r3, r1, r3
             0x0004041a: de 16:       setd (r2r)      res[r2], r3
             0x0004041c: 89 e8:       setc (ru6)      res[r2], 0x9
             0x0004041e: ce b6:       in (2r)         r3, res[r2]
.label71     0x00040420: 04 10:       add (3r)        r0, r1, r0
             0x00040422: d2 16:       setd (r2r)      res[r2], r0
             0x00040424: 89 e8:       setc (ru6)      res[r2], 0x9
             0x00040426: c2 b6:       in (2r)         r0, res[r2]
             0x00040428: c0 77:       retsp (u6)      0x0
             0x0004042a: 00 00:       stw (2rus)      r0, r0[0x0]

<_DoSyscall>:
             0x0004042c: 00 f0 40 77: entsp (lu6)     0x0
             0x00040430: d0 a6:       mkmsk (rus)     r0, 0x20
             0x00040432: c0 77:       retsp (u6)      0x0

<__call_exitprocs_impl>:
             0x00040434: 00 f0 40 77: entsp (lu6)     0x0
             0x00040438: c0 77:       retsp (u6)      0x0
             0x0004043a: 00 00:       stw (2rus)      r0, r0[0x0]

<__call_exitprocs>:
             0x0004043c: 00 f0 42 77: entsp (lu6)     0x2
             0x00040440: 00 f0 08 d4: bl (lu10)       -0x8 <__call_exitprocs_impl>
             0x00040444: c2 77:       retsp (u6)      0x2
             0x00040446: 00 00:       stw (2rus)      r0, r0[0x0]

<_cleanup_impl>:
             0x00040448: 00 f0 40 77: entsp (lu6)     0x0
             0x0004044c: c0 77:       retsp (u6)      0x0
             0x0004044e: 00 00:       stw (2rus)      r0, r0[0x0]

<_cleanup>:
             0x00040450: 00 f0 42 77: entsp (lu6)     0x2
             0x00040454: 00 f0 08 d4: bl (lu10)       -0x8 <_cleanup_impl>
             0x00040458: c2 77:       retsp (u6)      0x2
             0x0004045a: 00 00:       stw (2rus)      r0, r0[0x0]

<_done>:
             0x0004045c: 00 f0 40 77: entsp (lu6)     0x0
             0x00040460: 07 68:       ldc (ru6)       r0, 0x7
             0x00040462: 00 f0 1d d4: bl (lu10)       -0x1d <_DoSyscall>
             0x00040466: ed 07:       clre (0r)       
             0x00040468: ec 07:       waiteu (0r)     
             0x0004046a: 00 00:       stw (2rus)      r0, r0[0x0]

<_exit>:
             0x0004046c: 00 f0 40 77: entsp (lu6)     0x0
             0x00040470: 10 90:       add (2rus)      r1, r0, 0x0
             0x00040472: 00 68:       ldc (ru6)       r0, 0x0
             0x00040474: 00 f0 26 d4: bl (lu10)       -0x26 <_DoSyscall>
             0x00040478: ed 07:       clre (0r)       
             0x0004047a: ec 07:       waiteu (0r)     

<__alloc_libc_hwlock>:
.label72     0x0004047c: 00 f0 40 77: entsp (lu6)     0x0
             0x00040480: 81 87:       getr (rus)      r0, 0x5
             0x00040482: 00 f0 11 50: stw (lru6)      r0, dp[0x11]
             0x00040486: c0 77:       retsp (u6)      0x0

Disassembly of section .init (size: 28)

<_init>:
.label2      0x00040488: 00 f0 42 77: entsp (lu6)     0x2
             0x0004048c: 00 f0 0a d4: bl (lu10)       -0xa <.label72>
             0x00040490: 00 f0 11 6d: ldw (lru6)      r4, cp[0x11]
             0x00040494: 06 79:       bf (ru6)        r4, 0x6 <do_ctors_end>
             0x00040496: 00 f0 4b 6d: ldw (lru6)      r5, cp[0xb]

<do_ctors_loop>:
             0x0004049a: 01 99:       sub (2rus)      r4, r4, 0x1
             0x0004049c: 04 4b:       ldw (3r)        r0, r5[r4]
             0x0004049e: e0 27:       bla (1r)        r0
             0x000404a0: 04 75:       bt (ru6)        r4, -0x4 <do_ctors_loop>

<do_ctors_end>:
             0x000404a2: c2 77:       retsp (u6)      0x2

Disassembly of section .fini (size: 48)

<_fini>:
.label70     0x000404a4: 00 f0 42 77: entsp (lu6)     0x2
             0x000404a8: 84 77:       extsp (u6)      0x4
             0x000404aa: 01 55:       stw (ru6)       r4, sp[0x1]
             0x000404ac: 42 55:       stw (ru6)       r5, sp[0x2]
             0x000404ae: 83 55:       stw (ru6)       r6, sp[0x3]
             0x000404b0: 00 f0 90 6d: ldw (lru6)      r6, cp[0x10]
             0x000404b4: 88 79:       bf (ru6)        r6, 0x8 <do_dtors_end>
             0x000404b6: 00 69:       ldc (ru6)       r4, 0x0
             0x000404b8: 00 f0 4c 6d: ldw (lru6)      r5, cp[0xc]

<do_dtors_loop>:
             0x000404bc: 04 4b:       ldw (3r)        r0, r5[r4]
             0x000404be: e0 27:       bla (1r)        r0
             0x000404c0: 01 91:       add (2rus)      r4, r4, 0x1
             0x000404c2: b2 cb:       lsu (3r)        r11, r4, r6
             0x000404c4: c5 76:       bt (ru6)        r11, -0x5 <do_dtors_loop>

<do_dtors_end>:
             0x000404c6: 00 f0 6d d4: bl (lu10)       -0x6d <.label73>
             0x000404ca: 01 5d:       ldw (ru6)       r4, sp[0x1]
             0x000404cc: 42 5d:       ldw (ru6)       r5, sp[0x2]
             0x000404ce: 83 5d:       ldw (ru6)       r6, sp[0x3]
             0x000404d0: 84 67:       ldaw (ru6)      sp, sp[0x4]
             0x000404d2: c2 77:       retsp (u6)      0x2

Loadable 2 for tile[3] (node "1", tile 1):

Disassembly of section .text (size: 652)

<_start>:
             0x00040000: 00 f0 40 77: entsp (lu6)     0x0
             0x00040004: 4b 68:       ldc (ru6)       r1, 0xb
             0x00040006: d1 fe ec 17: get (l2r)       r0, ps[r1]
             0x0004000a: 04 f0 8b 68: ldc (lru6)      r2, 0x10b
             0x0004000e: c2 fe ec 1f: set (lr2r)      ps[r2], r0
             0x00040012: c3 86:       getr (rus)      r0, 0x3
             0x00040014: 79 d8:       ldap (u10)      r11, 0x79 <_InitChildThread>
             0x00040016: 02 73:       bu (u6)         0x2 <.label0>
.label1      0x00040018: 5d ff ec 07: init (l2r)      t[r1]:pc, r11
.label0      0x0004001c: d4 06:       getst (2r)      r1, res[r0]
             0x0004001e: 44 74:       bt (ru6)        r1, -0x4 <.label1>
             0x00040020: f0 1f:       msync (1r)      res[r0]
             0x00040022: 74 d0:       bl (u10)        0x74 <_SetupThread>
             0x00040024: 00 f0 8d 6f: ldw (lru6)      sp, cp[0xd]
             0x00040028: f0 17:       mjoin (1r)      res[r0]
             0x0004002a: e0 17:       freer (1r)      res[r0]
             0x0004002c: 00 f0 08 60: ldaw (lru6)     r0, dp[0x8]
             0x00040030: 40 68:       ldc (ru6)       r1, 0x0
             0x00040032: 00 f0 8e 6c: ldw (lru6)      r2, cp[0xe]
             0x00040036: 00 f0 cf d0: bl (lu10)       0xcf <memset>
             0x0004003a: 00 f0 0a 6c: ldw (lru6)      r0, cp[0xa]
             0x0004003e: 40 68:       ldc (ru6)       r1, 0x0
             0x00040040: 00 f0 8f 6c: ldw (lru6)      r2, cp[0xf]
             0x00040044: 00 f0 c8 d0: bl (lu10)       0xc8 <memset>
             0x00040048: 00 f0 ca d0: bl (lu10)       0xca <__init_threadlocal_timer>
             0x0004004c: 00 f0 1e d1: bl (lu10)       0x11e <.label2>
             0x00040050: 00 f0 c6 6a: ldc (lru6)      r11, 0x6
             0x00040054: c8 ea:       setc (ru6)      res[r11], 0x8
             0x00040056: cf ea:       setc (ru6)      res[r11], 0xf
             0x00040058: 00 68:       ldc (ru6)       r0, 0x0
             0x0004005a: 01 54:       stw (ru6)       r0, sp[0x1]
             0x0004005c: 00 f0 40 68: ldc (lru6)      r1, 0x0
             0x00040060: 48 78:       bf (ru6)        r1, 0x8 <.label3>
             0x00040062: 01 64:       ldaw (ru6)      r0, sp[0x1]
             0x00040064: 00 f0 92 d0: bl (lu10)       0x92 <_get_cmdline>
             0x00040068: b0 f8 ec 97: ashr (l2rus)    r11, r0, 0x20
             0x0004006c: c2 7a:       bf (ru6)        r11, 0x2 <.label3>
             0x0004006e: 01 90:       add (2rus)      r0, r0, 0x1
             0x00040070: f0 4f:       ecallt (1r)     r0
.label3      0x00040072: 41 64:       ldaw (ru6)      r1, sp[0x1]
             0x00040074: 00 f0 5c d0: bl (lu10)       0x5c <main>
             0x00040078: 02 70:       bt (ru6)        r0, 0x2 <.label4>
             0x0004007a: 00 f0 8f d0: bl (lu10)       0x8f <__libc_done>
.label4      0x0004007e: 00 f0 99 d0: bl (lu10)       0x99 <_exit_unlocked>
             0x00040082: ff 17:       nop (0r)        
             0x00040084: ff 17:       nop (0r)        
             0x00040086: ff 17:       nop (0r)        
             0x00040088: ff 17:       nop (0r)        
             0x0004008a: ff 17:       nop (0r)        
             0x0004008c: ff 17:       nop (0r)        
             0x0004008e: ff 17:       nop (0r)        
             0x00040090: ff 17:       nop (0r)        
             0x00040092: ff 17:       nop (0r)        
             0x00040094: ff 17:       nop (0r)        
             0x00040096: ff 17:       nop (0r)        
             0x00040098: ff 17:       nop (0r)        
             0x0004009a: ff 17:       nop (0r)        
             0x0004009c: ff 17:       nop (0r)        
             0x0004009e: ff 17:       nop (0r)        
             0x000400a0: ff 17:       nop (0r)        
             0x000400a2: ff 17:       nop (0r)        
             0x000400a4: ff 17:       nop (0r)        
             0x000400a6: ff 17:       nop (0r)        
             0x000400a8: ff 17:       nop (0r)        
             0x000400aa: ff 17:       nop (0r)        
             0x000400ac: ff 17:       nop (0r)        
             0x000400ae: ff 17:       nop (0r)        
             0x000400b0: ff 17:       nop (0r)        
             0x000400b2: ff 17:       nop (0r)        
             0x000400b4: ff 17:       nop (0r)        
             0x000400b6: ff 17:       nop (0r)        
             0x000400b8: ff 17:       nop (0r)        
             0x000400ba: ff 17:       nop (0r)        
             0x000400bc: ff 17:       nop (0r)        
             0x000400be: ff 17:       nop (0r)        
             0x000400c0: ff 17:       nop (0r)        
             0x000400c2: ff 17:       nop (0r)        
             0x000400c4: ff 17:       nop (0r)        
             0x000400c6: ff 17:       nop (0r)        
             0x000400c8: ff 17:       nop (0r)        
             0x000400ca: ff 17:       nop (0r)        
             0x000400cc: ff 17:       nop (0r)        
             0x000400ce: ff 17:       nop (0r)        
             0x000400d0: ff 17:       nop (0r)        
             0x000400d2: ff 17:       nop (0r)        
             0x000400d4: ff 17:       nop (0r)        
             0x000400d6: ff 17:       nop (0r)        
             0x000400d8: ff 17:       nop (0r)        
             0x000400da: ff 17:       nop (0r)        
             0x000400dc: ff 17:       nop (0r)        
             0x000400de: ff 17:       nop (0r)        
             0x000400e0: ff 17:       nop (0r)        
             0x000400e2: ff 17:       nop (0r)        
             0x000400e4: ff 17:       nop (0r)        
             0x000400e6: ff 17:       nop (0r)        
             0x000400e8: ff 17:       nop (0r)        
             0x000400ea: ff 17:       nop (0r)        
             0x000400ec: ff 17:       nop (0r)        
             0x000400ee: ff 17:       nop (0r)        
             0x000400f0: ff 17:       nop (0r)        
             0x000400f2: ff 17:       nop (0r)        
             0x000400f4: ff 17:       nop (0r)        
             0x000400f6: ff 17:       nop (0r)        
             0x000400f8: ff 17:       nop (0r)        
             0x000400fa: ff 17:       nop (0r)        
             0x000400fc: ff 17:       nop (0r)        
             0x000400fe: ff 17:       nop (0r)        

<_TrapHandler>:
             0x00040100: 00 f0 40 77: entsp (lu6)     0x0
             0x00040104: 00 f0 64 d0: bl (lu10)       0x64 <_DoException>

<_InitChildThread>:
             0x00040108: 01 d0:       bl (u10)        0x1 <_SetupThread>
             0x0004010a: ee 07:       ssync (0r)      

<_SetupThread>:
             0x0004010c: 07 dc:       ldap (u10)      r11, -0x7 <_TrapHandler>
             0x0004010e: ff 07:       set (0r)        kep, r11
             0x00040110: 00 f0 ea d8: ldap (lu10)     r11, 0xea <.label5>
             0x00040114: fb 37:       set (1r)        cp, r11
             0x00040116: 00 f0 49 6f: ldw (lru6)      dp, cp[0x9]
             0x0004011a: c0 6a:       ldc (ru6)       r11, 0x0
             0x0004011c: fb 2f:       set (1r)        sp, r11
             0x0004011e: c0 77:       retsp (u6)      0x0

<__register_frame_info_bases>:
             0x00040120: c0 77:       retsp (u6)      0x0
             0x00040122: 00 00:       stw (2rus)      r0, r0[0x0]

<__dummy_main>:
             0x00040124: 00 f0 42 77: entsp (lu6)     0x2
             0x00040128: 00 73:       bu (u6)         0x0 <.label6>
.label6      0x0004012a: 00 73:       bu (u6)         0x0 <.label7>
.label7      0x0004012c: 00 73:       bu (u6)         0x0 <.label8>
.label8      0x0004012e: c2 77:       retsp (u6)      0x2

<main>:
             0x00040130: 42 77:       entsp (u6)      0x2
.label9      0x00040132: c2 86:       getr (rus)      r0, 0x2
             0x00040134: 02 74:       bt (ru6)        r0, -0x2 <.label9>
             0x00040136: 78 f0 02 68: ldc (lru6)      r0, 0x1e02
             0x0004013a: 00 f0 d2 6e: ldw (lru6)      r11, cp[0x12]
             0x0004013e: 5c 17:       setd (r2r)      res[r0], r11
             0x00040140: d1 4e:       outct (rus)     res[r0], 0x1
             0x00040142: 5c bf:       testct (2r)     r11, res[r0]
             0x00040144: c2 7a:       bf (ru6)        r11, 0x2 <.label10>
             0x00040146: d1 ce:       chkct (rus)     res[r0], 0x1
             0x00040148: d1 4e:       outct (rus)     res[r0], 0x1
.label10     0x0004014a: 5c 8f:       int (2r)        r11, res[r0]
             0x0004014c: d1 ce:       chkct (rus)     res[r0], 0x1
             0x0004014e: 30 68:       ldc (ru6)       r0, 0x30
             0x00040150: 00 f0 58 d0: bl (lu10)       0x58 <delay_ticks>
             0x00040154: 00 f0 40 7f: ldaw (lu6)      r11, cp[0x0]
             0x00040158: 00 68:       ldc (ru6)       r0, 0x0
             0x0004015a: 60 68:       ldc (ru6)       r1, 0x20
             0x0004015c: 02 69:       ldc (ru6)       r4, 0x2
.label13     0x0004015e: ac 09:       ldw (2rus)      r2, r11[0x0]
             0x00040160: b8 ac:       shr (2rus)      r3, r2, 0x8
             0x00040162: 38 47:       zext (rus)      r2, 0x8
             0x00040164: 58 30:       eq (3r)         r5, r2, r0
             0x00040166: 47 79:       bf (ru6)        r5, 0x7 <.label11>
             0x00040168: a8 a4:       shl (2rus)      r2, r2, 0x8
             0x0004016a: 68 42:       or (3r)         r2, r2, r4
             0x0004016c: bc a4:       shl (2rus)      r3, r3, 0x8
             0x0004016e: 7c 42:       or (3r)         r3, r3, r4
             0x00040170: de 16:       setd (r2r)      res[r2], r3
             0x00040172: 7c 94:       add (2rus)      r11, r11, 0x4
             0x00040174: 03 73:       bu (u6)         0x3 <.label12>
.label11     0x00040176: a0 a4:       shl (2rus)      r2, r0, 0x8
             0x00040178: 68 42:       or (3r)         r2, r2, r4
             0x0004017a: e2 17:       freer (1r)      res[r2]
.label12     0x0004017c: 01 90:       add (2rus)      r0, r0, 0x1
             0x0004017e: 21 30:       eq (3r)         r2, r0, r1
             0x00040180: 92 7c:       bf (ru6)        r2, -0x12 <.label13>
             0x00040182: 00 f0 31 d4: bl (lu10)       -0x31 <__dummy_main>
             0x00040186: 00 68:       ldc (ru6)       r0, 0x0
             0x00040188: c2 77:       retsp (u6)      0x2
             0x0004018a: 00 00:       stw (2rus)      r0, r0[0x0]

<_get_cmdline>:
             0x0004018c: 00 f0 40 77: entsp (lu6)     0x0
             0x00040190: 24 90:       add (2rus)      r2, r1, 0x0
             0x00040192: 10 90:       add (2rus)      r1, r0, 0x0
             0x00040194: 0d 68:       ldc (ru6)       r0, 0xd
             0x00040196: 00 f0 4b d8: ldap (lu10)     r11, 0x4b <_DoSyscall>
             0x0004019a: fb 27:       bau (1r)        r11

<__libc_done>:
             0x0004019c: 00 f0 42 77: entsp (lu6)     0x2
             0x000401a0: 00 68:       ldc (ru6)       r0, 0x0
             0x000401a2: 10 90:       add (2rus)      r1, r0, 0x0
             0x000401a4: 00 f0 4c d0: bl (lu10)       0x4c <__call_exitprocs>
             0x000401a8: 00 f0 54 d0: bl (lu10)       0x54 <_cleanup>
             0x000401ac: 00 f0 7c d0: bl (lu10)       0x7c <.label14>
             0x000401b0: 00 f0 56 d0: bl (lu10)       0x56 <_done>

<_exit_unlocked>:
             0x000401b4: 00 f0 44 77: entsp (lu6)     0x4
             0x000401b8: 02 55:       stw (ru6)       r4, sp[0x2]
             0x000401ba: 40 90:       add (2rus)      r4, r0, 0x0
             0x000401bc: 40 68:       ldc (ru6)       r1, 0x0
             0x000401be: 00 f0 3f d0: bl (lu10)       0x3f <__call_exitprocs>
             0x000401c2: 00 f0 47 d0: bl (lu10)       0x47 <_cleanup>
             0x000401c6: 00 f0 6f d0: bl (lu10)       0x6f <.label14>
             0x000401ca: c0 90:       add (2rus)      r0, r4, 0x0
             0x000401cc: 00 f0 50 d0: bl (lu10)       0x50 <_exit>

<_DoException>:
             0x000401d0: 00 f0 40 77: entsp (lu6)     0x0
             0x000401d4: ed 07:       clre (0r)       
             0x000401d6: ec 07:       waiteu (0r)     

<memset>:
             0x000401d8: 00 f0 c1 6e: ldw (lru6)      r11, cp[0x1]
             0x000401dc: ff 17:       nop (0r)        
             0x000401de: fb 27:       bau (1r)        r11

<__init_threadlocal_timer>:
             0x000401e0: 00 f0 40 77: entsp (lu6)     0x0
             0x000401e4: c9 86:       getr (rus)      r2, 0x1
             0x000401e6: 00 f0 40 60: ldaw (lru6)     r1, dp[0x0]
             0x000401ea: ee 17:       get (0r)        r11, id
             0x000401ec: a7 fc ec 07: stw (l3r)       r2, r1[r11]
             0x000401f0: c0 77:       retsp (u6)      0x0
             0x000401f2: 00 00:       stw (2rus)      r0, r0[0x0]

<__free_threadlocal_timer>:
.label17     0x000401f4: 00 f0 40 77: entsp (lu6)     0x0
             0x000401f8: 00 f0 80 60: ldaw (lru6)     r2, dp[0x0]
             0x000401fc: ee 17:       get (0r)        r11, id
             0x000401fe: ab 4c:       ldw (3r)        r2, r2[r11]
             0x00040200: e2 17:       freer (1r)      res[r2]
             0x00040202: c0 77:       retsp (u6)      0x0

<delay_ticks>:
             0x00040204: 00 f0 40 77: entsp (lu6)     0x0
             0x00040208: e1 8f:       gettime (1r)    r1
             0x0004020a: ee 17:       get (0r)        r11, id
             0x0004020c: 00 f0 80 60: ldaw (lru6)     r2, dp[0x0]
             0x00040210: ab 4c:       ldw (3r)        r2, r2[r11]
             0x00040212: 30 f8 ec 97: ashr (l2rus)    r3, r0, 0x20
             0x00040216: c6 78:       bf (ru6)        r3, 0x6 <.label15>
             0x00040218: 00 f0 d3 6c: ldw (lru6)      r3, cp[0x13]
             0x0004021c: 37 10:       add (3r)        r3, r1, r3
             0x0004021e: de 16:       setd (r2r)      res[r2], r3
             0x00040220: 89 e8:       setc (ru6)      res[r2], 0x9
             0x00040222: ce b6:       in (2r)         r3, res[r2]
.label15     0x00040224: 04 10:       add (3r)        r0, r1, r0
             0x00040226: d2 16:       setd (r2r)      res[r2], r0
             0x00040228: 89 e8:       setc (ru6)      res[r2], 0x9
             0x0004022a: c2 b6:       in (2r)         r0, res[r2]
             0x0004022c: c0 77:       retsp (u6)      0x0
             0x0004022e: 00 00:       stw (2rus)      r0, r0[0x0]

<_DoSyscall>:
             0x00040230: 00 f0 40 77: entsp (lu6)     0x0
             0x00040234: d0 a6:       mkmsk (rus)     r0, 0x20
             0x00040236: c0 77:       retsp (u6)      0x0

<__call_exitprocs_impl>:
             0x00040238: 00 f0 40 77: entsp (lu6)     0x0
             0x0004023c: c0 77:       retsp (u6)      0x0
             0x0004023e: 00 00:       stw (2rus)      r0, r0[0x0]

<__call_exitprocs>:
             0x00040240: 00 f0 42 77: entsp (lu6)     0x2
             0x00040244: 00 f0 08 d4: bl (lu10)       -0x8 <__call_exitprocs_impl>
             0x00040248: c2 77:       retsp (u6)      0x2
             0x0004024a: 00 00:       stw (2rus)      r0, r0[0x0]

<_cleanup_impl>:
             0x0004024c: 00 f0 40 77: entsp (lu6)     0x0
             0x00040250: c0 77:       retsp (u6)      0x0
             0x00040252: 00 00:       stw (2rus)      r0, r0[0x0]

<_cleanup>:
             0x00040254: 00 f0 42 77: entsp (lu6)     0x2
             0x00040258: 00 f0 08 d4: bl (lu10)       -0x8 <_cleanup_impl>
             0x0004025c: c2 77:       retsp (u6)      0x2
             0x0004025e: 00 00:       stw (2rus)      r0, r0[0x0]

<_done>:
             0x00040260: 00 f0 40 77: entsp (lu6)     0x0
             0x00040264: 07 68:       ldc (ru6)       r0, 0x7
             0x00040266: 00 f0 1d d4: bl (lu10)       -0x1d <_DoSyscall>
             0x0004026a: ed 07:       clre (0r)       
             0x0004026c: ec 07:       waiteu (0r)     
             0x0004026e: 00 00:       stw (2rus)      r0, r0[0x0]

<_exit>:
             0x00040270: 00 f0 40 77: entsp (lu6)     0x0
             0x00040274: 10 90:       add (2rus)      r1, r0, 0x0
             0x00040276: 00 68:       ldc (ru6)       r0, 0x0
             0x00040278: 00 f0 26 d4: bl (lu10)       -0x26 <_DoSyscall>
             0x0004027c: ed 07:       clre (0r)       
             0x0004027e: ec 07:       waiteu (0r)     

<__alloc_libc_hwlock>:
.label16     0x00040280: 00 f0 40 77: entsp (lu6)     0x0
             0x00040284: 81 87:       getr (rus)      r0, 0x5
             0x00040286: 00 f0 08 50: stw (lru6)      r0, dp[0x8]
             0x0004028a: c0 77:       retsp (u6)      0x0

Disassembly of section .init (size: 28)

<_init>:
.label2      0x0004028c: 00 f0 42 77: entsp (lu6)     0x2
             0x00040290: 00 f0 0a d4: bl (lu10)       -0xa <.label16>
             0x00040294: 00 f0 11 6d: ldw (lru6)      r4, cp[0x11]
             0x00040298: 06 79:       bf (ru6)        r4, 0x6 <do_ctors_end>
             0x0004029a: 00 f0 4b 6d: ldw (lru6)      r5, cp[0xb]

<do_ctors_loop>:
             0x0004029e: 01 99:       sub (2rus)      r4, r4, 0x1
             0x000402a0: 04 4b:       ldw (3r)        r0, r5[r4]
             0x000402a2: e0 27:       bla (1r)        r0
             0x000402a4: 04 75:       bt (ru6)        r4, -0x4 <do_ctors_loop>

<do_ctors_end>:
             0x000402a6: c2 77:       retsp (u6)      0x2

Disassembly of section .fini (size: 48)

<_fini>:
.label14     0x000402a8: 00 f0 42 77: entsp (lu6)     0x2
             0x000402ac: 84 77:       extsp (u6)      0x4
             0x000402ae: 01 55:       stw (ru6)       r4, sp[0x1]
             0x000402b0: 42 55:       stw (ru6)       r5, sp[0x2]
             0x000402b2: 83 55:       stw (ru6)       r6, sp[0x3]
             0x000402b4: 00 f0 90 6d: ldw (lru6)      r6, cp[0x10]
             0x000402b8: 88 79:       bf (ru6)        r6, 0x8 <do_dtors_end>
             0x000402ba: 00 69:       ldc (ru6)       r4, 0x0
             0x000402bc: 00 f0 4c 6d: ldw (lru6)      r5, cp[0xc]

<do_dtors_loop>:
             0x000402c0: 04 4b:       ldw (3r)        r0, r5[r4]
             0x000402c2: e0 27:       bla (1r)        r0
             0x000402c4: 01 91:       add (2rus)      r4, r4, 0x1
             0x000402c6: b2 cb:       lsu (3r)        r11, r4, r6
             0x000402c8: c5 76:       bt (ru6)        r11, -0x5 <do_dtors_loop>

<do_dtors_end>:
             0x000402ca: 00 f0 6d d4: bl (lu10)       -0x6d <.label17>
             0x000402ce: 01 5d:       ldw (ru6)       r4, sp[0x1]
             0x000402d0: 42 5d:       ldw (ru6)       r5, sp[0x2]
             0x000402d2: 83 5d:       ldw (ru6)       r6, sp[0x3]
             0x000402d4: 84 67:       ldaw (ru6)      sp, sp[0x4]
             0x000402d6: c2 77:       retsp (u6)      0x2


